SF:/home/chris/dev/loopautoma/src-tauri/src/action.rs
FN:8,_RNvXNtCsh9acLuEY8XH_14loopautoma_lib6actionNtB2_10MoveCursorNtNtB4_6domain6Action4name
FN:11,_RNvXNtCsh9acLuEY8XH_14loopautoma_lib6actionNtB2_10MoveCursorNtNtB4_6domain6Action7execute
FN:32,_RNvXs0_NtCsh9acLuEY8XH_14loopautoma_lib6actionNtB5_8TypeTextNtNtB7_6domain6Action4name
FN:35,_RNvXs0_NtCsh9acLuEY8XH_14loopautoma_lib6actionNtB5_8TypeTextNtNtB7_6domain6Action7execute
FN:44,_RNvXs1_NtCsh9acLuEY8XH_14loopautoma_lib6actionNtB5_3KeyNtNtB7_6domain6Action4name
FN:47,_RNvXs1_NtCsh9acLuEY8XH_14loopautoma_lib6actionNtB5_3KeyNtNtB7_6domain6Action7execute
FN:20,_RNvXs_NtCsh9acLuEY8XH_14loopautoma_lib6actionNtB4_5ClickNtNtB6_6domain6Action4name
FN:23,_RNvXs_NtCsh9acLuEY8XH_14loopautoma_lib6actionNtB4_5ClickNtNtB6_6domain6Action7execute
FN:8,_RNvXNtCs54IFX23eV0j_14loopautoma_lib6actionNtB2_10MoveCursorNtNtB4_6domain6Action4name
FN:11,_RNvXNtCs54IFX23eV0j_14loopautoma_lib6actionNtB2_10MoveCursorNtNtB4_6domain6Action7execute
FN:32,_RNvXs0_NtCs54IFX23eV0j_14loopautoma_lib6actionNtB5_8TypeTextNtNtB7_6domain6Action4name
FN:35,_RNvXs0_NtCs54IFX23eV0j_14loopautoma_lib6actionNtB5_8TypeTextNtNtB7_6domain6Action7execute
FN:44,_RNvXs1_NtCs54IFX23eV0j_14loopautoma_lib6actionNtB5_3KeyNtNtB7_6domain6Action4name
FN:47,_RNvXs1_NtCs54IFX23eV0j_14loopautoma_lib6actionNtB5_3KeyNtNtB7_6domain6Action7execute
FN:20,_RNvXs_NtCs54IFX23eV0j_14loopautoma_lib6actionNtB4_5ClickNtNtB6_6domain6Action4name
FN:23,_RNvXs_NtCs54IFX23eV0j_14loopautoma_lib6actionNtB4_5ClickNtNtB6_6domain6Action7execute
FNDA:0,_RNvXNtCsh9acLuEY8XH_14loopautoma_lib6actionNtB2_10MoveCursorNtNtB4_6domain6Action4name
FNDA:0,_RNvXNtCsh9acLuEY8XH_14loopautoma_lib6actionNtB2_10MoveCursorNtNtB4_6domain6Action7execute
FNDA:0,_RNvXs0_NtCsh9acLuEY8XH_14loopautoma_lib6actionNtB5_8TypeTextNtNtB7_6domain6Action4name
FNDA:0,_RNvXs0_NtCsh9acLuEY8XH_14loopautoma_lib6actionNtB5_8TypeTextNtNtB7_6domain6Action7execute
FNDA:0,_RNvXs1_NtCsh9acLuEY8XH_14loopautoma_lib6actionNtB5_3KeyNtNtB7_6domain6Action4name
FNDA:0,_RNvXs1_NtCsh9acLuEY8XH_14loopautoma_lib6actionNtB5_3KeyNtNtB7_6domain6Action7execute
FNDA:0,_RNvXs_NtCsh9acLuEY8XH_14loopautoma_lib6actionNtB4_5ClickNtNtB6_6domain6Action4name
FNDA:0,_RNvXs_NtCsh9acLuEY8XH_14loopautoma_lib6actionNtB4_5ClickNtNtB6_6domain6Action7execute
FNDA:2,_RNvXNtCs54IFX23eV0j_14loopautoma_lib6actionNtB2_10MoveCursorNtNtB4_6domain6Action4name
FNDA:1,_RNvXNtCs54IFX23eV0j_14loopautoma_lib6actionNtB2_10MoveCursorNtNtB4_6domain6Action7execute
FNDA:32,_RNvXs0_NtCs54IFX23eV0j_14loopautoma_lib6actionNtB5_8TypeTextNtNtB7_6domain6Action4name
FNDA:16,_RNvXs0_NtCs54IFX23eV0j_14loopautoma_lib6actionNtB5_8TypeTextNtNtB7_6domain6Action7execute
FNDA:12,_RNvXs1_NtCs54IFX23eV0j_14loopautoma_lib6actionNtB5_3KeyNtNtB7_6domain6Action4name
FNDA:6,_RNvXs1_NtCs54IFX23eV0j_14loopautoma_lib6actionNtB5_3KeyNtNtB7_6domain6Action7execute
FNDA:2,_RNvXs_NtCs54IFX23eV0j_14loopautoma_lib6actionNtB4_5ClickNtNtB6_6domain6Action4name
FNDA:1,_RNvXs_NtCs54IFX23eV0j_14loopautoma_lib6actionNtB4_5ClickNtNtB6_6domain6Action7execute
FNF:8
FNH:8
DA:8,2
DA:9,2
DA:10,2
DA:11,1
DA:12,1
DA:13,1
DA:20,2
DA:21,2
DA:22,2
DA:23,1
DA:24,1
DA:25,1
DA:32,32
DA:33,32
DA:34,32
DA:35,16
DA:36,16
DA:37,16
DA:44,12
DA:45,12
DA:46,12
DA:47,6
DA:48,6
DA:49,6
BRF:0
BRH:0
LF:24
LH:24
end_of_record
SF:/home/chris/dev/loopautoma/src-tauri/src/bin/soak_report.rs
FN:25,_RNCNvCsewW0z62YLHQ_11soak_report13run_with_args0B3_
FN:39,_RNCNvCsewW0z62YLHQ_11soak_report13run_with_argss_0B3_
FN:58,_RNCNvCsewW0z62YLHQ_11soak_report9parse_f640B3_
FN:53,_RNCNvCsewW0z62YLHQ_11soak_report9parse_u320B3_
FN:47,_RNCNvCsewW0z62YLHQ_11soak_report9parse_u640B3_
FN:18,_RNvCsewW0z62YLHQ_11soak_report13run_with_args
FN:6,_RNvCsewW0z62YLHQ_11soak_report4main
FN:55,_RNvCsewW0z62YLHQ_11soak_report9parse_f64
FN:50,_RNvCsewW0z62YLHQ_11soak_report9parse_u32
FN:44,_RNvCsewW0z62YLHQ_11soak_report9parse_u64
FNDA:0,_RNCNvCsewW0z62YLHQ_11soak_report13run_with_args0B3_
FNDA:0,_RNCNvCsewW0z62YLHQ_11soak_report13run_with_argss_0B3_
FNDA:0,_RNCNvCsewW0z62YLHQ_11soak_report9parse_f640B3_
FNDA:0,_RNCNvCsewW0z62YLHQ_11soak_report9parse_u320B3_
FNDA:0,_RNCNvCsewW0z62YLHQ_11soak_report9parse_u640B3_
FNDA:0,_RNvCsewW0z62YLHQ_11soak_report13run_with_args
FNDA:0,_RNvCsewW0z62YLHQ_11soak_report4main
FNDA:0,_RNvCsewW0z62YLHQ_11soak_report9parse_f64
FNDA:0,_RNvCsewW0z62YLHQ_11soak_report9parse_u32
FNDA:0,_RNvCsewW0z62YLHQ_11soak_report9parse_u64
FNF:10
FNH:0
DA:6,0
DA:7,0
DA:8,0
DA:9,0
DA:10,0
DA:11,0
DA:12,0
DA:13,0
DA:16,0
DA:18,0
DA:19,0
DA:20,0
DA:21,0
DA:22,0
DA:23,0
DA:24,0
DA:25,0
DA:26,0
DA:27,0
DA:28,0
DA:29,0
DA:30,0
DA:31,0
DA:32,0
DA:33,0
DA:35,0
DA:38,0
DA:39,0
DA:40,0
DA:41,0
DA:42,0
DA:44,0
DA:45,0
DA:46,0
DA:47,0
DA:48,0
DA:50,0
DA:51,0
DA:52,0
DA:53,0
DA:54,0
DA:55,0
DA:56,0
DA:57,0
DA:58,0
DA:59,0
BRF:0
BRH:0
LF:51
LH:0
end_of_record
SF:/home/chris/dev/loopautoma/src-tauri/src/condition.rs
FN:14,_RNvMNtCsh9acLuEY8XH_14loopautoma_lib9conditionNtB2_15RegionCondition3new
FN:24,_RNvXs_NtCsh9acLuEY8XH_14loopautoma_lib9conditionNtB4_15RegionConditionNtNtB6_6domain9Condition8evaluate
FN:14,_RNvMNtCs54IFX23eV0j_14loopautoma_lib9conditionNtB2_15RegionCondition3new
FN:24,_RNvXs_NtCs54IFX23eV0j_14loopautoma_lib9conditionNtB4_15RegionConditionNtNtB6_6domain9Condition8evaluate
FNDA:0,_RNvMNtCsh9acLuEY8XH_14loopautoma_lib9conditionNtB2_15RegionCondition3new
FNDA:0,_RNvXs_NtCsh9acLuEY8XH_14loopautoma_lib9conditionNtB4_15RegionConditionNtNtB6_6domain9Condition8evaluate
FNDA:13,_RNvMNtCs54IFX23eV0j_14loopautoma_lib9conditionNtB2_15RegionCondition3new
FNDA:35,_RNvXs_NtCs54IFX23eV0j_14loopautoma_lib9conditionNtB4_15RegionConditionNtNtB6_6domain9Condition8evaluate
FNF:2
FNH:2
DA:14,13
DA:15,13
DA:16,13
DA:17,13
DA:18,13
DA:19,13
DA:20,13
DA:24,35
DA:25,35
DA:26,69
DA:27,34
DA:28,34
DA:29,11
DA:30,11
DA:31,11
DA:32,11
DA:33,11
DA:34,23
DA:35,23
DA:36,1
DA:37,1
DA:38,1
DA:39,1
DA:41,22
DA:42,4
DA:43,18
DA:48,35
DA:49,35
BRF:0
BRH:0
LF:28
LH:28
end_of_record
SF:/home/chris/dev/loopautoma/src-tauri/src/domain.rs
FN:122,_RNvMNtCsh9acLuEY8XH_14loopautoma_lib6domainNtB2_14ActionSequence3new
FN:126,_RNvMNtCsh9acLuEY8XH_14loopautoma_lib6domainNtB2_14ActionSequence3run
FN:246,_RNvXs0_NtCsh9acLuEY8XH_14loopautoma_lib6domainNtB5_9ModifiersNtNtCs4Vq2ZLagKfv_4core7default7Default7default
FN:297,_RNvXs2_NtCsh9acLuEY8XH_14loopautoma_lib6domainNtB5_12BackendErrorNtNtCs4Vq2ZLagKfv_4core3fmt7Display3fmt
FN:161,_RNvXs_NtCsh9acLuEY8XH_14loopautoma_lib6domainNtB4_10GuardrailsNtNtCs4Vq2ZLagKfv_4core7default7Default7default
FN:288,_RINvMs1_NtCsh9acLuEY8XH_14loopautoma_lib6domainNtB6_12BackendError3newNtNtCs456UZznmu7y_5alloc6string6StringEB8_
FN:288,_RINvMs1_NtCsh9acLuEY8XH_14loopautoma_lib6domainNtB6_12BackendError3newReEB8_
FN:91,_RNvYNtNtCsh9acLuEY8XH_14loopautoma_lib5fakes14FakeAutomationNtNtB6_6domain10Automation10mouse_downB6_
FN:100,_RNvYNtNtCsh9acLuEY8XH_14loopautoma_lib5fakes14FakeAutomationNtNtB6_6domain10Automation6key_upB6_
FN:97,_RNvYNtNtCsh9acLuEY8XH_14loopautoma_lib5fakes14FakeAutomationNtNtB6_6domain10Automation8key_downB6_
FN:94,_RNvYNtNtCsh9acLuEY8XH_14loopautoma_lib5fakes14FakeAutomationNtNtB6_6domain10Automation8mouse_upB6_
FN:288,_RINvMs1_NtCs54IFX23eV0j_14loopautoma_lib6domainNtB6_12BackendError3newReEB8_
FN:91,_RNvYNtNtCs54IFX23eV0j_14loopautoma_lib5fakes14FakeAutomationNtNtB6_6domain10Automation10mouse_downB6_
FN:100,_RNvYNtNtCs54IFX23eV0j_14loopautoma_lib5fakes14FakeAutomationNtNtB6_6domain10Automation6key_upB6_
FN:97,_RNvYNtNtCs54IFX23eV0j_14loopautoma_lib5fakes14FakeAutomationNtNtB6_6domain10Automation8key_downB6_
FN:94,_RNvYNtNtCs54IFX23eV0j_14loopautoma_lib5fakes14FakeAutomationNtNtB6_6domain10Automation8mouse_upB6_
FN:246,_RNvXs0_NtCs54IFX23eV0j_14loopautoma_lib6domainNtB5_9ModifiersNtNtCs4Vq2ZLagKfv_4core7default7Default7default
FN:297,_RNvXs2_NtCs54IFX23eV0j_14loopautoma_lib6domainNtB5_12BackendErrorNtNtCs4Vq2ZLagKfv_4core3fmt7Display3fmt
FN:91,_RNvYNtNtNtCs54IFX23eV0j_14loopautoma_lib5tests5tests8FakeAutoNtNtB8_6domain10Automation10mouse_downB8_
FN:100,_RNvYNtNtNtCs54IFX23eV0j_14loopautoma_lib5tests5tests8FakeAutoNtNtB8_6domain10Automation6key_upB8_
FN:97,_RNvYNtNtNtCs54IFX23eV0j_14loopautoma_lib5tests5tests8FakeAutoNtNtB8_6domain10Automation8key_downB8_
FN:94,_RNvYNtNtNtCs54IFX23eV0j_14loopautoma_lib5tests5tests8FakeAutoNtNtB8_6domain10Automation8mouse_upB8_
FN:91,_RNvYNtNvNtNtCs54IFX23eV0j_14loopautoma_lib5tests5testss_30guardrail_trips_on_max_runtime1ANtNtBa_6domain10Automation10mouse_downBa_
FN:100,_RNvYNtNvNtNtCs54IFX23eV0j_14loopautoma_lib5tests5testss_30guardrail_trips_on_max_runtime1ANtNtBa_6domain10Automation6key_upBa_
FN:97,_RNvYNtNvNtNtCs54IFX23eV0j_14loopautoma_lib5tests5testss_30guardrail_trips_on_max_runtime1ANtNtBa_6domain10Automation8key_downBa_
FN:94,_RNvYNtNvNtNtCs54IFX23eV0j_14loopautoma_lib5tests5testss_30guardrail_trips_on_max_runtime1ANtNtBa_6domain10Automation8mouse_upBa_
FN:91,_RNvYNtNvNtNtCs54IFX23eV0j_14loopautoma_lib5tests5testss_38e2e_happy_path_emits_expected_sequence4AutoNtNtBa_6domain10Automation10mouse_downBa_
FN:100,_RNvYNtNvNtNtCs54IFX23eV0j_14loopautoma_lib5tests5testss_38e2e_happy_path_emits_expected_sequence4AutoNtNtBa_6domain10Automation6key_upBa_
FN:97,_RNvYNtNvNtNtCs54IFX23eV0j_14loopautoma_lib5tests5testss_38e2e_happy_path_emits_expected_sequence4AutoNtNtBa_6domain10Automation8key_downBa_
FN:94,_RNvYNtNvNtNtCs54IFX23eV0j_14loopautoma_lib5tests5testss_38e2e_happy_path_emits_expected_sequence4AutoNtNtBa_6domain10Automation8mouse_upBa_
FN:91,_RNvYNtNvNtNtCs54IFX23eV0j_14loopautoma_lib5tests5testss_43guardrail_trips_on_max_activations_per_hour1ANtNtBa_6domain10Automation10mouse_downBa_
FN:100,_RNvYNtNvNtNtCs54IFX23eV0j_14loopautoma_lib5tests5testss_43guardrail_trips_on_max_activations_per_hour1ANtNtBa_6domain10Automation6key_upBa_
FN:97,_RNvYNtNvNtNtCs54IFX23eV0j_14loopautoma_lib5tests5testss_43guardrail_trips_on_max_activations_per_hour1ANtNtBa_6domain10Automation8key_downBa_
FN:94,_RNvYNtNvNtNtCs54IFX23eV0j_14loopautoma_lib5tests5testss_43guardrail_trips_on_max_activations_per_hour1ANtNtBa_6domain10Automation8mouse_upBa_
FN:91,_RNvYNtNvNtNtCs54IFX23eV0j_14loopautoma_lib5tests5testss_43max_activations_window_resets_after_an_hour1ANtNtBa_6domain10Automation10mouse_downBa_
FN:100,_RNvYNtNvNtNtCs54IFX23eV0j_14loopautoma_lib5tests5testss_43max_activations_window_resets_after_an_hour1ANtNtBa_6domain10Automation6key_upBa_
FN:97,_RNvYNtNvNtNtCs54IFX23eV0j_14loopautoma_lib5tests5testss_43max_activations_window_resets_after_an_hour1ANtNtBa_6domain10Automation8key_downBa_
FN:94,_RNvYNtNvNtNtCs54IFX23eV0j_14loopautoma_lib5tests5testss_43max_activations_window_resets_after_an_hour1ANtNtBa_6domain10Automation8mouse_upBa_
FN:91,_RNvYNtNvNtNtCs54IFX23eV0j_14loopautoma_lib5tests5testss_44soak_run_time_dilated_with_guardrails_stable1ANtNtBa_6domain10Automation10mouse_downBa_
FN:100,_RNvYNtNvNtNtCs54IFX23eV0j_14loopautoma_lib5tests5testss_44soak_run_time_dilated_with_guardrails_stable1ANtNtBa_6domain10Automation6key_upBa_
FN:97,_RNvYNtNvNtNtCs54IFX23eV0j_14loopautoma_lib5tests5testss_44soak_run_time_dilated_with_guardrails_stable1ANtNtBa_6domain10Automation8key_downBa_
FN:94,_RNvYNtNvNtNtCs54IFX23eV0j_14loopautoma_lib5tests5testss_44soak_run_time_dilated_with_guardrails_stable1ANtNtBa_6domain10Automation8mouse_upBa_
FN:91,_RNvYNtNvNtNtCs54IFX23eV0j_14loopautoma_lib5tests5testss_57profile_driven_monitor_emits_events_and_respects_cooldown4AutoNtNtBa_6domain10Automation10mouse_downBa_
FN:100,_RNvYNtNvNtNtCs54IFX23eV0j_14loopautoma_lib5tests5testss_57profile_driven_monitor_emits_events_and_respects_cooldown4AutoNtNtBa_6domain10Automation6key_upBa_
FN:97,_RNvYNtNvNtNtCs54IFX23eV0j_14loopautoma_lib5tests5testss_57profile_driven_monitor_emits_events_and_respects_cooldown4AutoNtNtBa_6domain10Automation8key_downBa_
FN:94,_RNvYNtNvNtNtCs54IFX23eV0j_14loopautoma_lib5tests5testss_57profile_driven_monitor_emits_events_and_respects_cooldown4AutoNtNtBa_6domain10Automation8mouse_upBa_
FN:122,_RNvMNtCs54IFX23eV0j_14loopautoma_lib6domainNtB2_14ActionSequence3new
FN:126,_RNvMNtCs54IFX23eV0j_14loopautoma_lib6domainNtB2_14ActionSequence3run
FN:161,_RNvXs_NtCs54IFX23eV0j_14loopautoma_lib6domainNtB4_10GuardrailsNtNtCs4Vq2ZLagKfv_4core7default7Default7default
FNDA:0,_RNvMNtCsh9acLuEY8XH_14loopautoma_lib6domainNtB2_14ActionSequence3new
FNDA:0,_RNvMNtCsh9acLuEY8XH_14loopautoma_lib6domainNtB2_14ActionSequence3run
FNDA:0,_RNvXs0_NtCsh9acLuEY8XH_14loopautoma_lib6domainNtB5_9ModifiersNtNtCs4Vq2ZLagKfv_4core7default7Default7default
FNDA:0,_RNvXs2_NtCsh9acLuEY8XH_14loopautoma_lib6domainNtB5_12BackendErrorNtNtCs4Vq2ZLagKfv_4core3fmt7Display3fmt
FNDA:0,_RNvXs_NtCsh9acLuEY8XH_14loopautoma_lib6domainNtB4_10GuardrailsNtNtCs4Vq2ZLagKfv_4core7default7Default7default
FNDA:0,_RINvMs1_NtCsh9acLuEY8XH_14loopautoma_lib6domainNtB6_12BackendError3newNtNtCs456UZznmu7y_5alloc6string6StringEB8_
FNDA:0,_RINvMs1_NtCsh9acLuEY8XH_14loopautoma_lib6domainNtB6_12BackendError3newReEB8_
FNDA:0,_RNvYNtNtCsh9acLuEY8XH_14loopautoma_lib5fakes14FakeAutomationNtNtB6_6domain10Automation10mouse_downB6_
FNDA:0,_RNvYNtNtCsh9acLuEY8XH_14loopautoma_lib5fakes14FakeAutomationNtNtB6_6domain10Automation6key_upB6_
FNDA:0,_RNvYNtNtCsh9acLuEY8XH_14loopautoma_lib5fakes14FakeAutomationNtNtB6_6domain10Automation8key_downB6_
FNDA:0,_RNvYNtNtCsh9acLuEY8XH_14loopautoma_lib5fakes14FakeAutomationNtNtB6_6domain10Automation8mouse_upB6_
FNDA:0,_RINvMs1_NtCs54IFX23eV0j_14loopautoma_lib6domainNtB6_12BackendError3newReEB8_
FNDA:0,_RNvYNtNtCs54IFX23eV0j_14loopautoma_lib5fakes14FakeAutomationNtNtB6_6domain10Automation10mouse_downB6_
FNDA:0,_RNvYNtNtCs54IFX23eV0j_14loopautoma_lib5fakes14FakeAutomationNtNtB6_6domain10Automation6key_upB6_
FNDA:0,_RNvYNtNtCs54IFX23eV0j_14loopautoma_lib5fakes14FakeAutomationNtNtB6_6domain10Automation8key_downB6_
FNDA:0,_RNvYNtNtCs54IFX23eV0j_14loopautoma_lib5fakes14FakeAutomationNtNtB6_6domain10Automation8mouse_upB6_
FNDA:0,_RNvXs0_NtCs54IFX23eV0j_14loopautoma_lib6domainNtB5_9ModifiersNtNtCs4Vq2ZLagKfv_4core7default7Default7default
FNDA:0,_RNvXs2_NtCs54IFX23eV0j_14loopautoma_lib6domainNtB5_12BackendErrorNtNtCs4Vq2ZLagKfv_4core3fmt7Display3fmt
FNDA:0,_RNvYNtNtNtCs54IFX23eV0j_14loopautoma_lib5tests5tests8FakeAutoNtNtB8_6domain10Automation10mouse_downB8_
FNDA:0,_RNvYNtNtNtCs54IFX23eV0j_14loopautoma_lib5tests5tests8FakeAutoNtNtB8_6domain10Automation6key_upB8_
FNDA:0,_RNvYNtNtNtCs54IFX23eV0j_14loopautoma_lib5tests5tests8FakeAutoNtNtB8_6domain10Automation8key_downB8_
FNDA:0,_RNvYNtNtNtCs54IFX23eV0j_14loopautoma_lib5tests5tests8FakeAutoNtNtB8_6domain10Automation8mouse_upB8_
FNDA:0,_RNvYNtNvNtNtCs54IFX23eV0j_14loopautoma_lib5tests5testss_30guardrail_trips_on_max_runtime1ANtNtBa_6domain10Automation10mouse_downBa_
FNDA:0,_RNvYNtNvNtNtCs54IFX23eV0j_14loopautoma_lib5tests5testss_30guardrail_trips_on_max_runtime1ANtNtBa_6domain10Automation6key_upBa_
FNDA:0,_RNvYNtNvNtNtCs54IFX23eV0j_14loopautoma_lib5tests5testss_30guardrail_trips_on_max_runtime1ANtNtBa_6domain10Automation8key_downBa_
FNDA:0,_RNvYNtNvNtNtCs54IFX23eV0j_14loopautoma_lib5tests5testss_30guardrail_trips_on_max_runtime1ANtNtBa_6domain10Automation8mouse_upBa_
FNDA:0,_RNvYNtNvNtNtCs54IFX23eV0j_14loopautoma_lib5tests5testss_38e2e_happy_path_emits_expected_sequence4AutoNtNtBa_6domain10Automation10mouse_downBa_
FNDA:0,_RNvYNtNvNtNtCs54IFX23eV0j_14loopautoma_lib5tests5testss_38e2e_happy_path_emits_expected_sequence4AutoNtNtBa_6domain10Automation6key_upBa_
FNDA:0,_RNvYNtNvNtNtCs54IFX23eV0j_14loopautoma_lib5tests5testss_38e2e_happy_path_emits_expected_sequence4AutoNtNtBa_6domain10Automation8key_downBa_
FNDA:0,_RNvYNtNvNtNtCs54IFX23eV0j_14loopautoma_lib5tests5testss_38e2e_happy_path_emits_expected_sequence4AutoNtNtBa_6domain10Automation8mouse_upBa_
FNDA:0,_RNvYNtNvNtNtCs54IFX23eV0j_14loopautoma_lib5tests5testss_43guardrail_trips_on_max_activations_per_hour1ANtNtBa_6domain10Automation10mouse_downBa_
FNDA:0,_RNvYNtNvNtNtCs54IFX23eV0j_14loopautoma_lib5tests5testss_43guardrail_trips_on_max_activations_per_hour1ANtNtBa_6domain10Automation6key_upBa_
FNDA:0,_RNvYNtNvNtNtCs54IFX23eV0j_14loopautoma_lib5tests5testss_43guardrail_trips_on_max_activations_per_hour1ANtNtBa_6domain10Automation8key_downBa_
FNDA:0,_RNvYNtNvNtNtCs54IFX23eV0j_14loopautoma_lib5tests5testss_43guardrail_trips_on_max_activations_per_hour1ANtNtBa_6domain10Automation8mouse_upBa_
FNDA:0,_RNvYNtNvNtNtCs54IFX23eV0j_14loopautoma_lib5tests5testss_43max_activations_window_resets_after_an_hour1ANtNtBa_6domain10Automation10mouse_downBa_
FNDA:0,_RNvYNtNvNtNtCs54IFX23eV0j_14loopautoma_lib5tests5testss_43max_activations_window_resets_after_an_hour1ANtNtBa_6domain10Automation6key_upBa_
FNDA:0,_RNvYNtNvNtNtCs54IFX23eV0j_14loopautoma_lib5tests5testss_43max_activations_window_resets_after_an_hour1ANtNtBa_6domain10Automation8key_downBa_
FNDA:0,_RNvYNtNvNtNtCs54IFX23eV0j_14loopautoma_lib5tests5testss_43max_activations_window_resets_after_an_hour1ANtNtBa_6domain10Automation8mouse_upBa_
FNDA:0,_RNvYNtNvNtNtCs54IFX23eV0j_14loopautoma_lib5tests5testss_44soak_run_time_dilated_with_guardrails_stable1ANtNtBa_6domain10Automation10mouse_downBa_
FNDA:0,_RNvYNtNvNtNtCs54IFX23eV0j_14loopautoma_lib5tests5testss_44soak_run_time_dilated_with_guardrails_stable1ANtNtBa_6domain10Automation6key_upBa_
FNDA:0,_RNvYNtNvNtNtCs54IFX23eV0j_14loopautoma_lib5tests5testss_44soak_run_time_dilated_with_guardrails_stable1ANtNtBa_6domain10Automation8key_downBa_
FNDA:0,_RNvYNtNvNtNtCs54IFX23eV0j_14loopautoma_lib5tests5testss_44soak_run_time_dilated_with_guardrails_stable1ANtNtBa_6domain10Automation8mouse_upBa_
FNDA:0,_RNvYNtNvNtNtCs54IFX23eV0j_14loopautoma_lib5tests5testss_57profile_driven_monitor_emits_events_and_respects_cooldown4AutoNtNtBa_6domain10Automation10mouse_downBa_
FNDA:0,_RNvYNtNvNtNtCs54IFX23eV0j_14loopautoma_lib5tests5testss_57profile_driven_monitor_emits_events_and_respects_cooldown4AutoNtNtBa_6domain10Automation6key_upBa_
FNDA:0,_RNvYNtNvNtNtCs54IFX23eV0j_14loopautoma_lib5tests5testss_57profile_driven_monitor_emits_events_and_respects_cooldown4AutoNtNtBa_6domain10Automation8key_downBa_
FNDA:0,_RNvYNtNvNtNtCs54IFX23eV0j_14loopautoma_lib5tests5testss_57profile_driven_monitor_emits_events_and_respects_cooldown4AutoNtNtBa_6domain10Automation8mouse_upBa_
FNDA:12,_RNvMNtCs54IFX23eV0j_14loopautoma_lib6domainNtB2_14ActionSequence3new
FNDA:16,_RNvMNtCs54IFX23eV0j_14loopautoma_lib6domainNtB2_14ActionSequence3run
FNDA:0,_RNvXs_NtCs54IFX23eV0j_14loopautoma_lib6domainNtB4_10GuardrailsNtNtCs4Vq2ZLagKfv_4core7default7Default7default
FNF:10
FNH:2
DA:91,0
DA:92,0
DA:93,0
DA:94,0
DA:95,0
DA:96,0
DA:97,0
DA:98,0
DA:99,0
DA:100,0
DA:101,0
DA:102,0
DA:122,12
DA:123,12
DA:124,12
DA:126,16
DA:127,40
DA:128,25
DA:129,25
DA:130,25
DA:131,25
DA:132,24
DA:133,24
DA:134,24
DA:135,24
DA:136,1
DA:137,1
DA:138,1
DA:139,1
DA:140,1
DA:141,1
DA:142,1
DA:143,1
DA:144,1
DA:148,15
DA:149,16
DA:161,0
DA:162,0
DA:163,0
DA:164,0
DA:165,0
DA:166,0
DA:167,0
DA:246,0
DA:247,0
DA:248,0
DA:249,0
DA:250,0
DA:251,0
DA:252,0
DA:253,0
DA:288,0
DA:289,0
DA:290,0
DA:291,0
DA:292,0
DA:293,0
DA:297,0
DA:298,0
DA:299,0
BRF:0
BRH:0
LF:60
LH:24
end_of_record
SF:/home/chris/dev/loopautoma/src-tauri/src/fakes.rs
FN:7,_RNvXNtCsh9acLuEY8XH_14loopautoma_lib5fakesNtB2_11FakeCaptureNtNtB4_6domain13ScreenCapture11hash_region
FN:11,_RNvXNtCsh9acLuEY8XH_14loopautoma_lib5fakesNtB2_11FakeCaptureNtNtB4_6domain13ScreenCapture14capture_region
FN:31,_RNvXNtCsh9acLuEY8XH_14loopautoma_lib5fakesNtB2_11FakeCaptureNtNtB4_6domain13ScreenCapture8displays
FN:47,_RNvXs_NtCsh9acLuEY8XH_14loopautoma_lib5fakesNtB4_14FakeAutomationNtNtB6_6domain10Automation11move_cursor
FN:56,_RNvXs_NtCsh9acLuEY8XH_14loopautoma_lib5fakesNtB4_14FakeAutomationNtNtB6_6domain10Automation3key
FN:50,_RNvXs_NtCsh9acLuEY8XH_14loopautoma_lib5fakesNtB4_14FakeAutomationNtNtB6_6domain10Automation5click
FN:53,_RNvXs_NtCsh9acLuEY8XH_14loopautoma_lib5fakesNtB4_14FakeAutomationNtNtB6_6domain10Automation9type_text
FN:7,_RNvXNtCs54IFX23eV0j_14loopautoma_lib5fakesNtB2_11FakeCaptureNtNtB4_6domain13ScreenCapture11hash_region
FN:11,_RNvXNtCs54IFX23eV0j_14loopautoma_lib5fakesNtB2_11FakeCaptureNtNtB4_6domain13ScreenCapture14capture_region
FN:31,_RNvXNtCs54IFX23eV0j_14loopautoma_lib5fakesNtB2_11FakeCaptureNtNtB4_6domain13ScreenCapture8displays
FN:47,_RNvXs_NtCs54IFX23eV0j_14loopautoma_lib5fakesNtB4_14FakeAutomationNtNtB6_6domain10Automation11move_cursor
FN:56,_RNvXs_NtCs54IFX23eV0j_14loopautoma_lib5fakesNtB4_14FakeAutomationNtNtB6_6domain10Automation3key
FN:50,_RNvXs_NtCs54IFX23eV0j_14loopautoma_lib5fakesNtB4_14FakeAutomationNtNtB6_6domain10Automation5click
FN:53,_RNvXs_NtCs54IFX23eV0j_14loopautoma_lib5fakesNtB4_14FakeAutomationNtNtB6_6domain10Automation9type_text
FNDA:0,_RNvXNtCsh9acLuEY8XH_14loopautoma_lib5fakesNtB2_11FakeCaptureNtNtB4_6domain13ScreenCapture11hash_region
FNDA:0,_RNvXNtCsh9acLuEY8XH_14loopautoma_lib5fakesNtB2_11FakeCaptureNtNtB4_6domain13ScreenCapture14capture_region
FNDA:0,_RNvXNtCsh9acLuEY8XH_14loopautoma_lib5fakesNtB2_11FakeCaptureNtNtB4_6domain13ScreenCapture8displays
FNDA:0,_RNvXs_NtCsh9acLuEY8XH_14loopautoma_lib5fakesNtB4_14FakeAutomationNtNtB6_6domain10Automation11move_cursor
FNDA:0,_RNvXs_NtCsh9acLuEY8XH_14loopautoma_lib5fakesNtB4_14FakeAutomationNtNtB6_6domain10Automation3key
FNDA:0,_RNvXs_NtCsh9acLuEY8XH_14loopautoma_lib5fakesNtB4_14FakeAutomationNtNtB6_6domain10Automation5click
FNDA:0,_RNvXs_NtCsh9acLuEY8XH_14loopautoma_lib5fakesNtB4_14FakeAutomationNtNtB6_6domain10Automation9type_text
FNDA:3,_RNvXNtCs54IFX23eV0j_14loopautoma_lib5fakesNtB2_11FakeCaptureNtNtB4_6domain13ScreenCapture11hash_region
FNDA:1,_RNvXNtCs54IFX23eV0j_14loopautoma_lib5fakesNtB2_11FakeCaptureNtNtB4_6domain13ScreenCapture14capture_region
FNDA:1,_RNvXNtCs54IFX23eV0j_14loopautoma_lib5fakesNtB2_11FakeCaptureNtNtB4_6domain13ScreenCapture8displays
FNDA:1,_RNvXs_NtCs54IFX23eV0j_14loopautoma_lib5fakesNtB4_14FakeAutomationNtNtB6_6domain10Automation11move_cursor
FNDA:1,_RNvXs_NtCs54IFX23eV0j_14loopautoma_lib5fakesNtB4_14FakeAutomationNtNtB6_6domain10Automation3key
FNDA:1,_RNvXs_NtCs54IFX23eV0j_14loopautoma_lib5fakesNtB4_14FakeAutomationNtNtB6_6domain10Automation5click
FNDA:1,_RNvXs_NtCs54IFX23eV0j_14loopautoma_lib5fakesNtB4_14FakeAutomationNtNtB6_6domain10Automation9type_text
FNF:7
FNH:7
DA:7,3
DA:8,3
DA:9,3
DA:11,1
DA:12,1
DA:13,1
DA:14,1
DA:15,1
DA:16,1
DA:17,1
DA:18,1
DA:19,1
DA:20,1
DA:21,1
DA:22,1
DA:23,1
DA:24,1
DA:25,1
DA:26,1
DA:27,1
DA:28,1
DA:29,1
DA:31,1
DA:32,1
DA:33,1
DA:34,1
DA:35,1
DA:36,1
DA:37,1
DA:38,1
DA:39,1
DA:40,1
DA:41,1
DA:42,1
DA:47,1
DA:48,1
DA:49,1
DA:50,1
DA:51,1
DA:52,1
DA:53,1
DA:54,1
DA:55,1
DA:56,1
DA:57,1
DA:58,1
BRF:0
BRH:0
LF:46
LH:46
end_of_record
SF:/home/chris/dev/loopautoma/src-tauri/src/lib.rs
FN:38,_RNvCsh9acLuEY8XH_14loopautoma_lib10env_truthy
FN:446,_RNvCsh9acLuEY8XH_14loopautoma_lib11window_info
FN:140,_RNvCsh9acLuEY8XH_14loopautoma_lib12make_capture
FN:337,_RNvCsh9acLuEY8XH_14loopautoma_lib12monitor_stop
FN:261,_RNvCsh9acLuEY8XH_14loopautoma_lib13monitor_start
FN:250,_RNvCsh9acLuEY8XH_14loopautoma_lib13profiles_load
FN:255,_RNvCsh9acLuEY8XH_14loopautoma_lib13profiles_save
FN:549,_RNvCsh9acLuEY8XH_14loopautoma_lib14normalize_rect
FN:170,_RNvCsh9acLuEY8XH_14loopautoma_lib15make_automation
FN:437,_RNvCsh9acLuEY8XH_14loopautoma_lib15window_position
FN:573,_RNvCsh9acLuEY8XH_14loopautoma_lib17capture_thumbnail
FN:326,_RNvCsh9acLuEY8XH_14loopautoma_lib17monitor_stop_impl
FN:386,_RNvCsh9acLuEY8XH_14loopautoma_lib18inject_mouse_event
FN:45,_RNvCsh9acLuEY8XH_14loopautoma_lib18is_release_runtime
FN:206,_RNvCsh9acLuEY8XH_14loopautoma_lib18make_input_capture
FN:343,_RNvCsh9acLuEY8XH_14loopautoma_lib18monitor_panic_stop
FN:471,_RNvCsh9acLuEY8XH_14loopautoma_lib18region_picker_show
FN:592,_RNvCsh9acLuEY8XH_14loopautoma_lib20encode_png_thumbnail
FN:521,_RNvCsh9acLuEY8XH_14loopautoma_lib20region_picker_cancel
FN:377,_RNvCsh9acLuEY8XH_14loopautoma_lib20stop_input_recording
FN:398,_RNvCsh9acLuEY8XH_14loopautoma_lib21inject_keyboard_event
FN:349,_RNvCsh9acLuEY8XH_14loopautoma_lib21start_input_recording
FN:497,_RNvCsh9acLuEY8XH_14loopautoma_lib22region_picker_complete
FN:545,_RNvCsh9acLuEY8XH_14loopautoma_lib24region_capture_thumbnail
FN:76,_RNvCsh9acLuEY8XH_14loopautoma_lib25finalize_monitor_shutdown
FN:94,_RNvCsh9acLuEY8XH_14loopautoma_lib26build_monitor_from_profile
FN:234,_RNvCsh9acLuEY8XH_14loopautoma_lib28ensure_dev_injection_allowed
FN:409,_RNvCsh9acLuEY8XH_14loopautoma_lib3run
FN:58,_RNvCsh9acLuEY8XH_14loopautoma_lib5greet
FN:533,_RNvCsh9acLuEY8XH_14loopautoma_lib8app_quit
FN:447,_RNCNvCsh9acLuEY8XH_14loopautoma_lib11window_info0B3_
FN:448,_RNCNvCsh9acLuEY8XH_14loopautoma_lib11window_infos_0B3_
FN:272,_RNCNvCsh9acLuEY8XH_14loopautoma_lib13monitor_start0B3_
FN:289,_RNCNvCsh9acLuEY8XH_14loopautoma_lib13monitor_starts0_0B3_
FN:273,_RNCNvCsh9acLuEY8XH_14loopautoma_lib13monitor_starts_0B3_
FN:440,_RNCNvCsh9acLuEY8XH_14loopautoma_lib15window_position0B3_
FN:441,_RNCNvCsh9acLuEY8XH_14loopautoma_lib15window_positions_0B3_
FN:492,_RNCNvCsh9acLuEY8XH_14loopautoma_lib18region_picker_show0B3_
FN:380,_RNCNvCsh9acLuEY8XH_14loopautoma_lib20stop_input_recording0B3_
FN:364,_RNCNvCsh9acLuEY8XH_14loopautoma_lib21start_input_recording0B3_
FN:371,_RNCNvCsh9acLuEY8XH_14loopautoma_lib21start_input_recordings0_0B3_
FN:368,_RNCNvCsh9acLuEY8XH_14loopautoma_lib21start_input_recordings_0B3_
FN:502,_RNCNvCsh9acLuEY8XH_14loopautoma_lib22region_picker_complete0B3_
FN:509,_RNCNvCsh9acLuEY8XH_14loopautoma_lib22region_picker_completes0_0B3_
FN:503,_RNCNvCsh9acLuEY8XH_14loopautoma_lib22region_picker_completes_0B3_
FN:546,_RNCNvCsh9acLuEY8XH_14loopautoma_lib24region_capture_thumbnail0B3_
FN:128,_RNCNvCsh9acLuEY8XH_14loopautoma_lib26build_monitor_from_profile0B3_
FN:38,_RNvCs54IFX23eV0j_14loopautoma_lib10env_truthy
FN:549,_RNvCs54IFX23eV0j_14loopautoma_lib14normalize_rect
FN:45,_RNvCs54IFX23eV0j_14loopautoma_lib18is_release_runtime
FN:76,_RNvCs54IFX23eV0j_14loopautoma_lib25finalize_monitor_shutdown
FN:94,_RNvCs54IFX23eV0j_14loopautoma_lib26build_monitor_from_profile
FN:234,_RNvCs54IFX23eV0j_14loopautoma_lib28ensure_dev_injection_allowed
FN:447,_RNCNvCs54IFX23eV0j_14loopautoma_lib11window_info0B3_
FN:448,_RNCNvCs54IFX23eV0j_14loopautoma_lib11window_infos_0B3_
FN:272,_RNCNvCs54IFX23eV0j_14loopautoma_lib13monitor_start0B3_
FN:289,_RNCNvCs54IFX23eV0j_14loopautoma_lib13monitor_starts0_0B3_
FN:273,_RNCNvCs54IFX23eV0j_14loopautoma_lib13monitor_starts_0B3_
FN:440,_RNCNvCs54IFX23eV0j_14loopautoma_lib15window_position0B3_
FN:441,_RNCNvCs54IFX23eV0j_14loopautoma_lib15window_positions_0B3_
FN:492,_RNCNvCs54IFX23eV0j_14loopautoma_lib18region_picker_show0B3_
FN:380,_RNCNvCs54IFX23eV0j_14loopautoma_lib20stop_input_recording0B3_
FN:364,_RNCNvCs54IFX23eV0j_14loopautoma_lib21start_input_recording0B3_
FN:371,_RNCNvCs54IFX23eV0j_14loopautoma_lib21start_input_recordings0_0B3_
FN:368,_RNCNvCs54IFX23eV0j_14loopautoma_lib21start_input_recordings_0B3_
FN:502,_RNCNvCs54IFX23eV0j_14loopautoma_lib22region_picker_complete0B3_
FN:509,_RNCNvCs54IFX23eV0j_14loopautoma_lib22region_picker_completes0_0B3_
FN:503,_RNCNvCs54IFX23eV0j_14loopautoma_lib22region_picker_completes_0B3_
FN:546,_RNCNvCs54IFX23eV0j_14loopautoma_lib24region_capture_thumbnail0B3_
FN:446,_RNvCs54IFX23eV0j_14loopautoma_lib11window_info
FN:140,_RNvCs54IFX23eV0j_14loopautoma_lib12make_capture
FN:337,_RNvCs54IFX23eV0j_14loopautoma_lib12monitor_stop
FN:261,_RNvCs54IFX23eV0j_14loopautoma_lib13monitor_start
FN:250,_RNvCs54IFX23eV0j_14loopautoma_lib13profiles_load
FN:255,_RNvCs54IFX23eV0j_14loopautoma_lib13profiles_save
FN:170,_RNvCs54IFX23eV0j_14loopautoma_lib15make_automation
FN:437,_RNvCs54IFX23eV0j_14loopautoma_lib15window_position
FN:573,_RNvCs54IFX23eV0j_14loopautoma_lib17capture_thumbnail
FN:326,_RNvCs54IFX23eV0j_14loopautoma_lib17monitor_stop_impl
FN:386,_RNvCs54IFX23eV0j_14loopautoma_lib18inject_mouse_event
FN:206,_RNvCs54IFX23eV0j_14loopautoma_lib18make_input_capture
FN:343,_RNvCs54IFX23eV0j_14loopautoma_lib18monitor_panic_stop
FN:471,_RNvCs54IFX23eV0j_14loopautoma_lib18region_picker_show
FN:592,_RNvCs54IFX23eV0j_14loopautoma_lib20encode_png_thumbnail
FN:521,_RNvCs54IFX23eV0j_14loopautoma_lib20region_picker_cancel
FN:377,_RNvCs54IFX23eV0j_14loopautoma_lib20stop_input_recording
FN:398,_RNvCs54IFX23eV0j_14loopautoma_lib21inject_keyboard_event
FN:349,_RNvCs54IFX23eV0j_14loopautoma_lib21start_input_recording
FN:497,_RNvCs54IFX23eV0j_14loopautoma_lib22region_picker_complete
FN:545,_RNvCs54IFX23eV0j_14loopautoma_lib24region_capture_thumbnail
FN:409,_RNvCs54IFX23eV0j_14loopautoma_lib3run
FN:58,_RNvCs54IFX23eV0j_14loopautoma_lib5greet
FN:533,_RNvCs54IFX23eV0j_14loopautoma_lib8app_quit
FN:628,_RNvNtCs54IFX23eV0j_14loopautoma_lib15dev_guard_tests8env_lock
FN:633,_RNvNtCs54IFX23eV0j_14loopautoma_lib15dev_guard_tests9clear_env
FN:639,_RNvNtCs54IFX23eV0j_14loopautoma_lib15dev_guard_testss_20rejects_without_flag
FN:657,_RNvNtCs54IFX23eV0j_14loopautoma_lib15dev_guard_testss_25allows_with_flag_in_debug
FN:646,_RNvNtCs54IFX23eV0j_14loopautoma_lib15dev_guard_testss_35rejects_release_mode_even_with_flag
FN:630,_RNCNvNtCs54IFX23eV0j_14loopautoma_lib15dev_guard_tests8env_lock0B5_
FN:128,_RNCNvCs54IFX23eV0j_14loopautoma_lib26build_monitor_from_profile0B3_
FNDA:0,_RNvCsh9acLuEY8XH_14loopautoma_lib10env_truthy
FNDA:0,_RNvCsh9acLuEY8XH_14loopautoma_lib11window_info
FNDA:0,_RNvCsh9acLuEY8XH_14loopautoma_lib12make_capture
FNDA:0,_RNvCsh9acLuEY8XH_14loopautoma_lib12monitor_stop
FNDA:0,_RNvCsh9acLuEY8XH_14loopautoma_lib13monitor_start
FNDA:0,_RNvCsh9acLuEY8XH_14loopautoma_lib13profiles_load
FNDA:0,_RNvCsh9acLuEY8XH_14loopautoma_lib13profiles_save
FNDA:0,_RNvCsh9acLuEY8XH_14loopautoma_lib14normalize_rect
FNDA:0,_RNvCsh9acLuEY8XH_14loopautoma_lib15make_automation
FNDA:0,_RNvCsh9acLuEY8XH_14loopautoma_lib15window_position
FNDA:0,_RNvCsh9acLuEY8XH_14loopautoma_lib17capture_thumbnail
FNDA:0,_RNvCsh9acLuEY8XH_14loopautoma_lib17monitor_stop_impl
FNDA:0,_RNvCsh9acLuEY8XH_14loopautoma_lib18inject_mouse_event
FNDA:0,_RNvCsh9acLuEY8XH_14loopautoma_lib18is_release_runtime
FNDA:0,_RNvCsh9acLuEY8XH_14loopautoma_lib18make_input_capture
FNDA:0,_RNvCsh9acLuEY8XH_14loopautoma_lib18monitor_panic_stop
FNDA:0,_RNvCsh9acLuEY8XH_14loopautoma_lib18region_picker_show
FNDA:0,_RNvCsh9acLuEY8XH_14loopautoma_lib20encode_png_thumbnail
FNDA:0,_RNvCsh9acLuEY8XH_14loopautoma_lib20region_picker_cancel
FNDA:0,_RNvCsh9acLuEY8XH_14loopautoma_lib20stop_input_recording
FNDA:0,_RNvCsh9acLuEY8XH_14loopautoma_lib21inject_keyboard_event
FNDA:0,_RNvCsh9acLuEY8XH_14loopautoma_lib21start_input_recording
FNDA:0,_RNvCsh9acLuEY8XH_14loopautoma_lib22region_picker_complete
FNDA:0,_RNvCsh9acLuEY8XH_14loopautoma_lib24region_capture_thumbnail
FNDA:0,_RNvCsh9acLuEY8XH_14loopautoma_lib25finalize_monitor_shutdown
FNDA:0,_RNvCsh9acLuEY8XH_14loopautoma_lib26build_monitor_from_profile
FNDA:0,_RNvCsh9acLuEY8XH_14loopautoma_lib28ensure_dev_injection_allowed
FNDA:0,_RNvCsh9acLuEY8XH_14loopautoma_lib3run
FNDA:0,_RNvCsh9acLuEY8XH_14loopautoma_lib5greet
FNDA:0,_RNvCsh9acLuEY8XH_14loopautoma_lib8app_quit
FNDA:0,_RNCNvCsh9acLuEY8XH_14loopautoma_lib11window_info0B3_
FNDA:0,_RNCNvCsh9acLuEY8XH_14loopautoma_lib11window_infos_0B3_
FNDA:0,_RNCNvCsh9acLuEY8XH_14loopautoma_lib13monitor_start0B3_
FNDA:0,_RNCNvCsh9acLuEY8XH_14loopautoma_lib13monitor_starts0_0B3_
FNDA:0,_RNCNvCsh9acLuEY8XH_14loopautoma_lib13monitor_starts_0B3_
FNDA:0,_RNCNvCsh9acLuEY8XH_14loopautoma_lib15window_position0B3_
FNDA:0,_RNCNvCsh9acLuEY8XH_14loopautoma_lib15window_positions_0B3_
FNDA:0,_RNCNvCsh9acLuEY8XH_14loopautoma_lib18region_picker_show0B3_
FNDA:0,_RNCNvCsh9acLuEY8XH_14loopautoma_lib20stop_input_recording0B3_
FNDA:0,_RNCNvCsh9acLuEY8XH_14loopautoma_lib21start_input_recording0B3_
FNDA:0,_RNCNvCsh9acLuEY8XH_14loopautoma_lib21start_input_recordings0_0B3_
FNDA:0,_RNCNvCsh9acLuEY8XH_14loopautoma_lib21start_input_recordings_0B3_
FNDA:0,_RNCNvCsh9acLuEY8XH_14loopautoma_lib22region_picker_complete0B3_
FNDA:0,_RNCNvCsh9acLuEY8XH_14loopautoma_lib22region_picker_completes0_0B3_
FNDA:0,_RNCNvCsh9acLuEY8XH_14loopautoma_lib22region_picker_completes_0B3_
FNDA:0,_RNCNvCsh9acLuEY8XH_14loopautoma_lib24region_capture_thumbnail0B3_
FNDA:0,_RNCNvCsh9acLuEY8XH_14loopautoma_lib26build_monitor_from_profile0B3_
FNDA:5,_RNvCs54IFX23eV0j_14loopautoma_lib10env_truthy
FNDA:6,_RNvCs54IFX23eV0j_14loopautoma_lib14normalize_rect
FNDA:3,_RNvCs54IFX23eV0j_14loopautoma_lib18is_release_runtime
FNDA:2,_RNvCs54IFX23eV0j_14loopautoma_lib25finalize_monitor_shutdown
FNDA:3,_RNvCs54IFX23eV0j_14loopautoma_lib26build_monitor_from_profile
FNDA:3,_RNvCs54IFX23eV0j_14loopautoma_lib28ensure_dev_injection_allowed
FNDA:0,_RNCNvCs54IFX23eV0j_14loopautoma_lib11window_info0B3_
FNDA:0,_RNCNvCs54IFX23eV0j_14loopautoma_lib11window_infos_0B3_
FNDA:0,_RNCNvCs54IFX23eV0j_14loopautoma_lib13monitor_start0B3_
FNDA:0,_RNCNvCs54IFX23eV0j_14loopautoma_lib13monitor_starts0_0B3_
FNDA:0,_RNCNvCs54IFX23eV0j_14loopautoma_lib13monitor_starts_0B3_
FNDA:0,_RNCNvCs54IFX23eV0j_14loopautoma_lib15window_position0B3_
FNDA:0,_RNCNvCs54IFX23eV0j_14loopautoma_lib15window_positions_0B3_
FNDA:0,_RNCNvCs54IFX23eV0j_14loopautoma_lib18region_picker_show0B3_
FNDA:0,_RNCNvCs54IFX23eV0j_14loopautoma_lib20stop_input_recording0B3_
FNDA:0,_RNCNvCs54IFX23eV0j_14loopautoma_lib21start_input_recording0B3_
FNDA:0,_RNCNvCs54IFX23eV0j_14loopautoma_lib21start_input_recordings0_0B3_
FNDA:0,_RNCNvCs54IFX23eV0j_14loopautoma_lib21start_input_recordings_0B3_
FNDA:0,_RNCNvCs54IFX23eV0j_14loopautoma_lib22region_picker_complete0B3_
FNDA:0,_RNCNvCs54IFX23eV0j_14loopautoma_lib22region_picker_completes0_0B3_
FNDA:0,_RNCNvCs54IFX23eV0j_14loopautoma_lib22region_picker_completes_0B3_
FNDA:0,_RNCNvCs54IFX23eV0j_14loopautoma_lib24region_capture_thumbnail0B3_
FNDA:0,_RNvCs54IFX23eV0j_14loopautoma_lib11window_info
FNDA:0,_RNvCs54IFX23eV0j_14loopautoma_lib12make_capture
FNDA:0,_RNvCs54IFX23eV0j_14loopautoma_lib12monitor_stop
FNDA:0,_RNvCs54IFX23eV0j_14loopautoma_lib13monitor_start
FNDA:0,_RNvCs54IFX23eV0j_14loopautoma_lib13profiles_load
FNDA:0,_RNvCs54IFX23eV0j_14loopautoma_lib13profiles_save
FNDA:0,_RNvCs54IFX23eV0j_14loopautoma_lib15make_automation
FNDA:0,_RNvCs54IFX23eV0j_14loopautoma_lib15window_position
FNDA:0,_RNvCs54IFX23eV0j_14loopautoma_lib17capture_thumbnail
FNDA:0,_RNvCs54IFX23eV0j_14loopautoma_lib17monitor_stop_impl
FNDA:0,_RNvCs54IFX23eV0j_14loopautoma_lib18inject_mouse_event
FNDA:0,_RNvCs54IFX23eV0j_14loopautoma_lib18make_input_capture
FNDA:0,_RNvCs54IFX23eV0j_14loopautoma_lib18monitor_panic_stop
FNDA:0,_RNvCs54IFX23eV0j_14loopautoma_lib18region_picker_show
FNDA:0,_RNvCs54IFX23eV0j_14loopautoma_lib20encode_png_thumbnail
FNDA:0,_RNvCs54IFX23eV0j_14loopautoma_lib20region_picker_cancel
FNDA:0,_RNvCs54IFX23eV0j_14loopautoma_lib20stop_input_recording
FNDA:0,_RNvCs54IFX23eV0j_14loopautoma_lib21inject_keyboard_event
FNDA:0,_RNvCs54IFX23eV0j_14loopautoma_lib21start_input_recording
FNDA:0,_RNvCs54IFX23eV0j_14loopautoma_lib22region_picker_complete
FNDA:0,_RNvCs54IFX23eV0j_14loopautoma_lib24region_capture_thumbnail
FNDA:0,_RNvCs54IFX23eV0j_14loopautoma_lib3run
FNDA:0,_RNvCs54IFX23eV0j_14loopautoma_lib5greet
FNDA:0,_RNvCs54IFX23eV0j_14loopautoma_lib8app_quit
FNDA:3,_RNvNtCs54IFX23eV0j_14loopautoma_lib15dev_guard_tests8env_lock
FNDA:5,_RNvNtCs54IFX23eV0j_14loopautoma_lib15dev_guard_tests9clear_env
FNDA:1,_RNvNtCs54IFX23eV0j_14loopautoma_lib15dev_guard_testss_20rejects_without_flag
FNDA:1,_RNvNtCs54IFX23eV0j_14loopautoma_lib15dev_guard_testss_25allows_with_flag_in_debug
FNDA:1,_RNvNtCs54IFX23eV0j_14loopautoma_lib15dev_guard_testss_35rejects_release_mode_even_with_flag
FNDA:1,_RNCNvNtCs54IFX23eV0j_14loopautoma_lib15dev_guard_tests8env_lock0B5_
FNDA:3,_RNCNvCs54IFX23eV0j_14loopautoma_lib26build_monitor_from_profile0B3_
FNF:53
FNH:13
DA:38,5
DA:39,2
DA:40,5
DA:41,2
DA:43,5
DA:45,3
DA:46,3
DA:47,1
DA:48,2
DA:49,2
DA:50,3
DA:58,0
DA:59,0
DA:60,0
DA:76,2
DA:77,2
DA:78,2
DA:79,1
DA:80,1
DA:81,1
DA:82,1
DA:83,2
DA:84,1
DA:85,1
DA:86,2
DA:87,2
DA:94,3
DA:96,3
DA:97,3
DA:100,3
DA:101,3
DA:102,3
DA:106,3
DA:107,9
DA:108,6
DA:109,0
DA:110,0
DA:112,0
DA:113,0
DA:115,3
DA:116,3
DA:118,3
DA:121,3
DA:124,3
DA:125,3
DA:126,3
DA:127,3
DA:128,3
DA:129,3
DA:130,3
DA:131,3
DA:132,3
DA:135,3
DA:137,3
DA:138,3
DA:140,0
DA:141,0
DA:142,0
DA:143,0
DA:146,0
DA:168,0
DA:170,0
DA:171,0
DA:172,0
DA:173,0
DA:176,0
DA:177,0
DA:178,0
DA:179,0
DA:180,0
DA:204,0
DA:206,0
DA:209,0
DA:232,0
DA:234,3
DA:235,3
DA:236,1
DA:237,1
DA:238,1
DA:239,2
DA:240,2
DA:241,1
DA:243,1
DA:244,1
DA:245,1
DA:247,3
DA:250,0
DA:251,0
DA:252,0
DA:255,0
DA:256,0
DA:257,0
DA:258,0
DA:261,0
DA:262,0
DA:263,0
DA:264,0
DA:265,0
DA:267,0
DA:269,0
DA:270,0
DA:271,0
DA:272,0
DA:273,0
DA:274,0
DA:275,0
DA:276,0
DA:277,0
DA:278,0
DA:281,0
DA:282,0
DA:283,0
DA:284,0
DA:285,0
DA:286,0
DA:287,0
DA:289,0
DA:290,0
DA:293,0
DA:294,0
DA:295,0
DA:296,0
DA:297,0
DA:298,0
DA:299,0
DA:301,0
DA:302,0
DA:303,0
DA:305,0
DA:306,0
DA:307,0
DA:308,0
DA:309,0
DA:310,0
DA:311,0
DA:312,0
DA:313,0
DA:314,0
DA:316,0
DA:318,0
DA:319,0
DA:320,0
DA:321,0
DA:322,0
DA:323,0
DA:324,0
DA:326,0
DA:327,0
DA:328,0
DA:329,0
DA:330,0
DA:331,0
DA:333,0
DA:334,0
DA:337,0
DA:338,0
DA:339,0
DA:340,0
DA:343,0
DA:344,0
DA:345,0
DA:346,0
DA:349,0
DA:350,0
DA:351,0
DA:352,0
DA:353,0
DA:354,0
DA:355,0
DA:360,0
DA:361,0
DA:362,0
DA:363,0
DA:364,0
DA:365,0
DA:366,0
DA:367,0
DA:368,0
DA:369,0
DA:370,0
DA:371,0
DA:372,0
DA:373,0
DA:374,0
DA:377,0
DA:378,0
DA:379,0
DA:380,0
DA:381,0
DA:382,0
DA:383,0
DA:386,0
DA:387,0
DA:388,0
DA:389,0
DA:390,0
DA:391,0
DA:392,0
DA:394,0
DA:395,0
DA:398,0
DA:399,0
DA:400,0
DA:401,0
DA:402,0
DA:403,0
DA:405,0
DA:406,0
DA:409,0
DA:410,0
DA:411,0
DA:412,0
DA:413,0
DA:432,0
DA:433,0
DA:434,0
DA:437,0
DA:438,0
DA:439,0
DA:440,0
DA:441,0
DA:442,0
DA:446,0
DA:447,0
DA:448,0
DA:449,0
DA:450,0
DA:471,0
DA:472,0
DA:473,0
DA:474,0
DA:475,0
DA:476,0
DA:477,0
DA:478,0
DA:479,0
DA:480,0
DA:482,0
DA:484,0
DA:485,0
DA:486,0
DA:487,0
DA:488,0
DA:489,0
DA:490,0
DA:491,0
DA:492,0
DA:493,0
DA:494,0
DA:497,0
DA:498,0
DA:499,0
DA:500,0
DA:501,0
DA:502,0
DA:503,0
DA:504,0
DA:505,0
DA:506,0
DA:507,0
DA:508,0
DA:509,0
DA:510,0
DA:511,0
DA:512,0
DA:513,0
DA:514,0
DA:515,0
DA:516,0
DA:517,0
DA:518,0
DA:521,0
DA:522,0
DA:523,0
DA:524,0
DA:525,0
DA:526,0
DA:527,0
DA:528,0
DA:529,0
DA:530,0
DA:533,0
DA:534,0
DA:535,0
DA:536,0
DA:537,0
DA:538,0
DA:539,0
DA:540,0
DA:541,0
DA:542,0
DA:545,0
DA:546,0
DA:547,0
DA:549,6
DA:550,6
DA:551,6
DA:552,6
DA:553,6
DA:555,6
DA:556,6
DA:557,6
DA:558,6
DA:560,6
DA:561,6
DA:562,6
DA:563,2
DA:564,4
DA:565,4
DA:566,4
DA:567,4
DA:568,4
DA:569,4
DA:570,4
DA:571,6
DA:573,0
DA:574,0
DA:575,0
DA:576,0
DA:577,0
DA:578,0
DA:579,0
DA:580,0
DA:581,0
DA:582,0
DA:583,0
DA:584,0
DA:585,0
DA:586,0
DA:587,0
DA:590,0
DA:592,0
DA:593,0
DA:594,0
DA:595,0
DA:596,0
DA:597,0
DA:598,0
DA:600,0
DA:602,0
DA:603,0
DA:604,0
DA:605,0
DA:606,0
DA:607,0
DA:608,0
DA:609,0
DA:610,0
DA:611,0
DA:612,0
DA:613,0
DA:614,0
DA:615,0
DA:617,0
DA:618,0
DA:619,0
DA:620,0
DA:628,3
DA:630,3
DA:631,3
DA:633,5
DA:634,5
DA:635,5
DA:636,5
DA:639,1
DA:640,1
DA:641,1
DA:642,1
DA:643,1
DA:646,1
DA:647,1
DA:648,1
DA:649,1
DA:650,1
DA:651,1
DA:652,1
DA:653,1
DA:654,1
DA:657,1
DA:658,1
DA:659,1
DA:660,1
DA:661,1
DA:662,1
DA:663,1
BRF:0
BRH:0
LF:403
LH:110
end_of_record
SF:/home/chris/dev/loopautoma/src-tauri/src/main.rs
FN:4,_RNvCs44Q5Ip7HbB1_10loopautoma4main
FNDA:0,_RNvCs44Q5Ip7HbB1_10loopautoma4main
FNF:1
FNH:0
DA:4,0
DA:5,0
DA:6,0
BRF:0
BRH:0
LF:3
LH:0
end_of_record
SF:/home/chris/dev/loopautoma/src-tauri/src/monitor.rs
FN:18,_RNvMNtCsh9acLuEY8XH_14loopautoma_lib7monitorNtB2_7Monitor3new
FN:45,_RNvMNtCsh9acLuEY8XH_14loopautoma_lib7monitorNtB2_7Monitor4stop
FN:53,_RNvMNtCsh9acLuEY8XH_14loopautoma_lib7monitorNtB2_7Monitor4tick
FN:36,_RNvMNtCsh9acLuEY8XH_14loopautoma_lib7monitorNtB2_7Monitor5start
FN:18,_RNvMNtCs54IFX23eV0j_14loopautoma_lib7monitorNtB2_7Monitor3new
FN:45,_RNvMNtCs54IFX23eV0j_14loopautoma_lib7monitorNtB2_7Monitor4stop
FN:53,_RNvMNtCs54IFX23eV0j_14loopautoma_lib7monitorNtB2_7Monitor4tick
FN:36,_RNvMNtCs54IFX23eV0j_14loopautoma_lib7monitorNtB2_7Monitor5start
FNDA:0,_RNvMNtCsh9acLuEY8XH_14loopautoma_lib7monitorNtB2_7Monitor3new
FNDA:0,_RNvMNtCsh9acLuEY8XH_14loopautoma_lib7monitorNtB2_7Monitor4stop
FNDA:0,_RNvMNtCsh9acLuEY8XH_14loopautoma_lib7monitorNtB2_7Monitor4tick
FNDA:0,_RNvMNtCsh9acLuEY8XH_14loopautoma_lib7monitorNtB2_7Monitor5start
FNDA:10,_RNvMNtCs54IFX23eV0j_14loopautoma_lib7monitorNtB2_7Monitor3new
FNDA:4,_RNvMNtCs54IFX23eV0j_14loopautoma_lib7monitorNtB2_7Monitor4stop
FNDA:124,_RNvMNtCs54IFX23eV0j_14loopautoma_lib7monitorNtB2_7Monitor4tick
FNDA:10,_RNvMNtCs54IFX23eV0j_14loopautoma_lib7monitorNtB2_7Monitor5start
FNF:4
FNH:4
DA:18,10
DA:19,10
DA:20,10
DA:21,10
DA:22,10
DA:23,10
DA:24,10
DA:25,10
DA:26,10
DA:27,10
DA:28,10
DA:29,10
DA:30,10
DA:31,10
DA:32,10
DA:33,10
DA:34,10
DA:36,10
DA:37,10
DA:38,10
DA:39,10
DA:40,10
DA:41,10
DA:42,10
DA:43,10
DA:44,10
DA:45,4
DA:46,4
DA:47,4
DA:48,4
DA:49,4
DA:50,4
DA:51,4
DA:53,124
DA:54,124
DA:55,124
DA:56,124
DA:57,124
DA:58,124
DA:59,124
DA:60,124
DA:61,124
DA:62,94
DA:63,30
DA:66,30
DA:67,30
DA:68,16
DA:69,3
DA:70,3
DA:71,3
DA:72,3
DA:73,3
DA:74,13
DA:75,14
DA:76,0
DA:78,27
DA:79,0
DA:80,27
DA:81,27
DA:84,27
DA:85,10
DA:86,1
DA:87,9
DA:88,17
DA:90,26
DA:91,26
DA:92,26
DA:93,10
DA:94,16
DA:97,16
DA:98,14
DA:99,15
DA:100,8
DA:101,1
DA:102,1
DA:103,7
DA:106,14
DA:107,2
DA:108,2
DA:109,2
DA:110,2
DA:111,12
DA:112,2
DA:114,14
DA:115,14
DA:116,14
DA:117,14
DA:118,14
DA:119,12
DA:120,12
DA:121,0
DA:122,124
BRF:0
BRH:0
LF:92
LH:89
end_of_record
SF:/home/chris/dev/loopautoma/src-tauri/src/os/linux.rs
FN:161,_RINvMs_NtNtCsh9acLuEY8XH_14loopautoma_lib2os5linuxNtB5_15LinuxAutomation9with_connuNCNvB2_11send_button0EB9_
FN:161,_RINvMs_NtNtCsh9acLuEY8XH_14loopautoma_lib2os5linuxNtB5_15LinuxAutomation9with_connuNCNvB2_11send_motion0EB9_
FN:161,_RINvMs_NtNtCsh9acLuEY8XH_14loopautoma_lib2os5linuxNtB5_15LinuxAutomation9with_connuNCNvB2_12send_keycode0EB9_
FN:168,_RNCINvMs_NtNtCsh9acLuEY8XH_14loopautoma_lib2os5linuxNtB7_15LinuxAutomation9with_connuNCNvB4_11send_button0E0Bb_
FN:168,_RNCINvMs_NtNtCsh9acLuEY8XH_14loopautoma_lib2os5linuxNtB7_15LinuxAutomation9with_connuNCNvB4_11send_motion0E0Bb_
FN:168,_RNCINvMs_NtNtCsh9acLuEY8XH_14loopautoma_lib2os5linuxNtB7_15LinuxAutomation9with_connuNCNvB4_12send_keycode0E0Bb_
FN:210,_RNCNCNvMs_NtNtCsh9acLuEY8XH_14loopautoma_lib2os5linuxNtB8_15LinuxAutomation11send_button00Bc_
FN:211,_RNCNCNvMs_NtNtCsh9acLuEY8XH_14loopautoma_lib2os5linuxNtB8_15LinuxAutomation11send_button0s_0Bc_
FN:185,_RNCNCNvMs_NtNtCsh9acLuEY8XH_14loopautoma_lib2os5linuxNtB8_15LinuxAutomation11send_motion00Bc_
FN:186,_RNCNCNvMs_NtNtCsh9acLuEY8XH_14loopautoma_lib2os5linuxNtB8_15LinuxAutomation11send_motion0s_0Bc_
FN:230,_RNCNCNvMs_NtNtCsh9acLuEY8XH_14loopautoma_lib2os5linuxNtB8_15LinuxAutomation12send_keycode00Bc_
FN:231,_RNCNCNvMs_NtNtCsh9acLuEY8XH_14loopautoma_lib2os5linuxNtB8_15LinuxAutomation12send_keycode0s_0Bc_
FN:493,_RNCNvMs4_NtNtCsh9acLuEY8XH_14loopautoma_lib2os5linuxNtB7_14KeyboardLookup15from_connections_0Bb_
FN:196,_RNCNvMs_NtNtCsh9acLuEY8XH_14loopautoma_lib2os5linuxNtB6_15LinuxAutomation11send_button0Ba_
FN:175,_RNCNvMs_NtNtCsh9acLuEY8XH_14loopautoma_lib2os5linuxNtB6_15LinuxAutomation11send_motion0Ba_
FN:216,_RNCNvMs_NtNtCsh9acLuEY8XH_14loopautoma_lib2os5linuxNtB6_15LinuxAutomation12send_keycode0Ba_
FN:151,_RNCNvMs_NtNtCsh9acLuEY8XH_14loopautoma_lib2os5linuxNtB6_15LinuxAutomation3new0Ba_
FN:371,_RNCNvNtNtCsh9acLuEY8XH_14loopautoma_lib2os5linux12find_monitor0B7_
FN:378,_RNCNvNtNtCsh9acLuEY8XH_14loopautoma_lib2os5linux12find_monitors_0B7_
FN:758,_RNCNvNtNtCsh9acLuEY8XH_14loopautoma_lib2os5linux13select_xinput0B7_
FN:760,_RNCNvNtNtCsh9acLuEY8XH_14loopautoma_lib2os5linux13select_xinputs_0B7_
FN:584,_RNCNvNtNtCsh9acLuEY8XH_14loopautoma_lib2os5linux14run_input_loop0B7_
FN:558,_RNCNvNtNtCsh9acLuEY8XH_14loopautoma_lib2os5linux19open_xcb_connection0B7_
FN:95,_RNCNvXNtNtCsh9acLuEY8XH_14loopautoma_lib2os5linuxNtB4_12LinuxCaptureNtNtB8_6domain13ScreenCapture14capture_region0B8_
FN:123,_RNCNvXNtNtCsh9acLuEY8XH_14loopautoma_lib2os5linuxNtB4_12LinuxCaptureNtNtB8_6domain13ScreenCapture8displays0B8_
FN:300,_RNCNvXs0_NtNtCsh9acLuEY8XH_14loopautoma_lib2os5linuxNtB7_15LinuxAutomationNtNtBb_6domain10Automation3key0Bb_
FN:327,_RNCNvXs0_NtNtCsh9acLuEY8XH_14loopautoma_lib2os5linuxNtB7_15LinuxAutomationNtNtBb_6domain10Automation6key_up0Bb_
FN:313,_RNCNvXs0_NtNtCsh9acLuEY8XH_14loopautoma_lib2os5linuxNtB7_15LinuxAutomationNtNtBb_6domain10Automation8key_down0Bb_
FN:405,_RNCNvXs2_NtNtCsh9acLuEY8XH_14loopautoma_lib2os5linuxNtB7_17LinuxInputCaptureNtNtBb_6domain12InputCapture5start0Bb_
FN:505,_RNvMs4_NtNtCsh9acLuEY8XH_14loopautoma_lib2os5linuxNtB5_14KeyboardLookup11clamp_coord
FN:447,_RNvMs4_NtNtCsh9acLuEY8XH_14loopautoma_lib2os5linuxNtB5_14KeyboardLookup15from_connection
FN:519,_RNvMs5_NtNtCsh9acLuEY8XH_14loopautoma_lib2os5linuxNtB5_14XkbStateBundle3new
FN:190,_RNvMs_NtNtCsh9acLuEY8XH_14loopautoma_lib2os5linuxNtB4_15LinuxAutomation11send_button
FN:235,_RNvMs_NtNtCsh9acLuEY8XH_14loopautoma_lib2os5linuxNtB4_15LinuxAutomation11send_keysym
FN:172,_RNvMs_NtNtCsh9acLuEY8XH_14loopautoma_lib2os5linuxNtB4_15LinuxAutomation11send_motion
FN:260,_RNvMs_NtNtCsh9acLuEY8XH_14loopautoma_lib2os5linuxNtB4_15LinuxAutomation12key_from_str
FN:215,_RNvMs_NtNtCsh9acLuEY8XH_14loopautoma_lib2os5linuxNtB4_15LinuxAutomation12send_keycode
FN:243,_RNvMs_NtNtCsh9acLuEY8XH_14loopautoma_lib2os5linuxNtB4_15LinuxAutomation14send_with_mods
FN:145,_RNvMs_NtNtCsh9acLuEY8XH_14loopautoma_lib2os5linuxNtB4_15LinuxAutomation3new
FN:364,_RNvNtNtCsh9acLuEY8XH_14loopautoma_lib2os5linux12find_monitor
FN:746,_RNvNtNtCsh9acLuEY8XH_14loopautoma_lib2os5linux13select_xinput
FN:575,_RNvNtNtCsh9acLuEY8XH_14loopautoma_lib2os5linux14run_input_loop
FN:739,_RNvNtNtCsh9acLuEY8XH_14loopautoma_lib2os5linux16pointer_position
FN:600,_RNvNtNtCsh9acLuEY8XH_14loopautoma_lib2os5linux19handle_xinput_event
FN:557,_RNvNtNtCsh9acLuEY8XH_14loopautoma_lib2os5linux19open_xcb_connection
FN:674,_RNvNtNtCsh9acLuEY8XH_14loopautoma_lib2os5linux20build_keyboard_event
FN:708,_RNvNtNtCsh9acLuEY8XH_14loopautoma_lib2os5linux20modifiers_from_state
FN:562,_RNvNtNtCsh9acLuEY8XH_14loopautoma_lib2os5linux23core_keyboard_device_id
FN:350,_RNvNtNtCsh9acLuEY8XH_14loopautoma_lib2os5linux23to_display_info_monitor
FN:718,_RNvNtNtCsh9acLuEY8XH_14loopautoma_lib2os5linux24mouse_button_from_detail
FN:728,_RNvNtNtCsh9acLuEY8XH_14loopautoma_lib2os5linux24scroll_delta_from_button
FN:342,_RNvNtNtCsh9acLuEY8XH_14loopautoma_lib2os5linux6now_ms
FN:46,_RNvXNtNtCsh9acLuEY8XH_14loopautoma_lib2os5linuxNtB2_12LinuxCaptureNtNtB6_6domain13ScreenCapture11hash_region
FN:82,_RNvXNtNtCsh9acLuEY8XH_14loopautoma_lib2os5linuxNtB2_12LinuxCaptureNtNtB6_6domain13ScreenCapture14capture_region
FN:119,_RNvXNtNtCsh9acLuEY8XH_14loopautoma_lib2os5linuxNtB2_12LinuxCaptureNtNtB6_6domain13ScreenCapture8displays
FN:304,_RNvXs0_NtNtCsh9acLuEY8XH_14loopautoma_lib2os5linuxNtB5_15LinuxAutomationNtNtB9_6domain10Automation10mouse_down
FN:278,_RNvXs0_NtNtCsh9acLuEY8XH_14loopautoma_lib2os5linuxNtB5_15LinuxAutomationNtNtB9_6domain10Automation11move_cursor
FN:299,_RNvXs0_NtNtCsh9acLuEY8XH_14loopautoma_lib2os5linuxNtB5_15LinuxAutomationNtNtB9_6domain10Automation3key
FN:282,_RNvXs0_NtNtCsh9acLuEY8XH_14loopautoma_lib2os5linuxNtB5_15LinuxAutomationNtNtB9_6domain10Automation5click
FN:326,_RNvXs0_NtNtCsh9acLuEY8XH_14loopautoma_lib2os5linuxNtB5_15LinuxAutomationNtNtB9_6domain10Automation6key_up
FN:312,_RNvXs0_NtNtCsh9acLuEY8XH_14loopautoma_lib2os5linuxNtB5_15LinuxAutomationNtNtB9_6domain10Automation8key_down
FN:308,_RNvXs0_NtNtCsh9acLuEY8XH_14loopautoma_lib2os5linuxNtB5_15LinuxAutomationNtNtB9_6domain10Automation8mouse_up
FN:287,_RNvXs0_NtNtCsh9acLuEY8XH_14loopautoma_lib2os5linuxNtB5_15LinuxAutomationNtNtB9_6domain10Automation9type_text
FN:389,_RNvXs1_NtNtCsh9acLuEY8XH_14loopautoma_lib2os5linuxNtB5_17LinuxInputCaptureNtNtCs4Vq2ZLagKfv_4core7default7Default7default
FN:414,_RNvXs2_NtNtCsh9acLuEY8XH_14loopautoma_lib2os5linuxNtB5_17LinuxInputCaptureNtNtB9_6domain12InputCapture4stop
FN:399,_RNvXs2_NtNtCsh9acLuEY8XH_14loopautoma_lib2os5linuxNtB5_17LinuxInputCaptureNtNtB9_6domain12InputCapture5start
FN:427,_RNvXs3_NtNtCsh9acLuEY8XH_14loopautoma_lib2os5linuxNtB5_17LinuxInputCaptureNtNtNtCs4Vq2ZLagKfv_4core3ops4drop4Drop4drop
FN:161,_RINvMs_NtNtCs54IFX23eV0j_14loopautoma_lib2os5linuxNtB5_15LinuxAutomation9with_connppEB9_
FN:168,_RNCINvMs_NtNtCs54IFX23eV0j_14loopautoma_lib2os5linuxNtB7_15LinuxAutomation9with_connppE0Bb_
FN:210,_RNCNCNvMs_NtNtCs54IFX23eV0j_14loopautoma_lib2os5linuxNtB8_15LinuxAutomation11send_button00Bc_
FN:211,_RNCNCNvMs_NtNtCs54IFX23eV0j_14loopautoma_lib2os5linuxNtB8_15LinuxAutomation11send_button0s_0Bc_
FN:185,_RNCNCNvMs_NtNtCs54IFX23eV0j_14loopautoma_lib2os5linuxNtB8_15LinuxAutomation11send_motion00Bc_
FN:186,_RNCNCNvMs_NtNtCs54IFX23eV0j_14loopautoma_lib2os5linuxNtB8_15LinuxAutomation11send_motion0s_0Bc_
FN:230,_RNCNCNvMs_NtNtCs54IFX23eV0j_14loopautoma_lib2os5linuxNtB8_15LinuxAutomation12send_keycode00Bc_
FN:231,_RNCNCNvMs_NtNtCs54IFX23eV0j_14loopautoma_lib2os5linuxNtB8_15LinuxAutomation12send_keycode0s_0Bc_
FN:493,_RNCNvMs4_NtNtCs54IFX23eV0j_14loopautoma_lib2os5linuxNtB7_14KeyboardLookup15from_connections_0Bb_
FN:196,_RNCNvMs_NtNtCs54IFX23eV0j_14loopautoma_lib2os5linuxNtB6_15LinuxAutomation11send_button0Ba_
FN:175,_RNCNvMs_NtNtCs54IFX23eV0j_14loopautoma_lib2os5linuxNtB6_15LinuxAutomation11send_motion0Ba_
FN:216,_RNCNvMs_NtNtCs54IFX23eV0j_14loopautoma_lib2os5linuxNtB6_15LinuxAutomation12send_keycode0Ba_
FN:151,_RNCNvMs_NtNtCs54IFX23eV0j_14loopautoma_lib2os5linuxNtB6_15LinuxAutomation3new0Ba_
FN:371,_RNCNvNtNtCs54IFX23eV0j_14loopautoma_lib2os5linux12find_monitor0B7_
FN:378,_RNCNvNtNtCs54IFX23eV0j_14loopautoma_lib2os5linux12find_monitors_0B7_
FN:758,_RNCNvNtNtCs54IFX23eV0j_14loopautoma_lib2os5linux13select_xinput0B7_
FN:760,_RNCNvNtNtCs54IFX23eV0j_14loopautoma_lib2os5linux13select_xinputs_0B7_
FN:584,_RNCNvNtNtCs54IFX23eV0j_14loopautoma_lib2os5linux14run_input_loop0B7_
FN:558,_RNCNvNtNtCs54IFX23eV0j_14loopautoma_lib2os5linux19open_xcb_connection0B7_
FN:95,_RNCNvXNtNtCs54IFX23eV0j_14loopautoma_lib2os5linuxNtB4_12LinuxCaptureNtNtB8_6domain13ScreenCapture14capture_region0B8_
FN:123,_RNCNvXNtNtCs54IFX23eV0j_14loopautoma_lib2os5linuxNtB4_12LinuxCaptureNtNtB8_6domain13ScreenCapture8displays0B8_
FN:300,_RNCNvXs0_NtNtCs54IFX23eV0j_14loopautoma_lib2os5linuxNtB7_15LinuxAutomationNtNtBb_6domain10Automation3key0Bb_
FN:327,_RNCNvXs0_NtNtCs54IFX23eV0j_14loopautoma_lib2os5linuxNtB7_15LinuxAutomationNtNtBb_6domain10Automation6key_up0Bb_
FN:313,_RNCNvXs0_NtNtCs54IFX23eV0j_14loopautoma_lib2os5linuxNtB7_15LinuxAutomationNtNtBb_6domain10Automation8key_down0Bb_
FN:405,_RNCNvXs2_NtNtCs54IFX23eV0j_14loopautoma_lib2os5linuxNtB7_17LinuxInputCaptureNtNtBb_6domain12InputCapture5start0Bb_
FN:505,_RNvMs4_NtNtCs54IFX23eV0j_14loopautoma_lib2os5linuxNtB5_14KeyboardLookup11clamp_coord
FN:447,_RNvMs4_NtNtCs54IFX23eV0j_14loopautoma_lib2os5linuxNtB5_14KeyboardLookup15from_connection
FN:519,_RNvMs5_NtNtCs54IFX23eV0j_14loopautoma_lib2os5linuxNtB5_14XkbStateBundle3new
FN:190,_RNvMs_NtNtCs54IFX23eV0j_14loopautoma_lib2os5linuxNtB4_15LinuxAutomation11send_button
FN:235,_RNvMs_NtNtCs54IFX23eV0j_14loopautoma_lib2os5linuxNtB4_15LinuxAutomation11send_keysym
FN:172,_RNvMs_NtNtCs54IFX23eV0j_14loopautoma_lib2os5linuxNtB4_15LinuxAutomation11send_motion
FN:260,_RNvMs_NtNtCs54IFX23eV0j_14loopautoma_lib2os5linuxNtB4_15LinuxAutomation12key_from_str
FN:215,_RNvMs_NtNtCs54IFX23eV0j_14loopautoma_lib2os5linuxNtB4_15LinuxAutomation12send_keycode
FN:243,_RNvMs_NtNtCs54IFX23eV0j_14loopautoma_lib2os5linuxNtB4_15LinuxAutomation14send_with_mods
FN:145,_RNvMs_NtNtCs54IFX23eV0j_14loopautoma_lib2os5linuxNtB4_15LinuxAutomation3new
FN:364,_RNvNtNtCs54IFX23eV0j_14loopautoma_lib2os5linux12find_monitor
FN:746,_RNvNtNtCs54IFX23eV0j_14loopautoma_lib2os5linux13select_xinput
FN:575,_RNvNtNtCs54IFX23eV0j_14loopautoma_lib2os5linux14run_input_loop
FN:739,_RNvNtNtCs54IFX23eV0j_14loopautoma_lib2os5linux16pointer_position
FN:600,_RNvNtNtCs54IFX23eV0j_14loopautoma_lib2os5linux19handle_xinput_event
FN:557,_RNvNtNtCs54IFX23eV0j_14loopautoma_lib2os5linux19open_xcb_connection
FN:674,_RNvNtNtCs54IFX23eV0j_14loopautoma_lib2os5linux20build_keyboard_event
FN:708,_RNvNtNtCs54IFX23eV0j_14loopautoma_lib2os5linux20modifiers_from_state
FN:562,_RNvNtNtCs54IFX23eV0j_14loopautoma_lib2os5linux23core_keyboard_device_id
FN:350,_RNvNtNtCs54IFX23eV0j_14loopautoma_lib2os5linux23to_display_info_monitor
FN:718,_RNvNtNtCs54IFX23eV0j_14loopautoma_lib2os5linux24mouse_button_from_detail
FN:728,_RNvNtNtCs54IFX23eV0j_14loopautoma_lib2os5linux24scroll_delta_from_button
FN:342,_RNvNtNtCs54IFX23eV0j_14loopautoma_lib2os5linux6now_ms
FN:46,_RNvXNtNtCs54IFX23eV0j_14loopautoma_lib2os5linuxNtB2_12LinuxCaptureNtNtB6_6domain13ScreenCapture11hash_region
FN:82,_RNvXNtNtCs54IFX23eV0j_14loopautoma_lib2os5linuxNtB2_12LinuxCaptureNtNtB6_6domain13ScreenCapture14capture_region
FN:119,_RNvXNtNtCs54IFX23eV0j_14loopautoma_lib2os5linuxNtB2_12LinuxCaptureNtNtB6_6domain13ScreenCapture8displays
FN:304,_RNvXs0_NtNtCs54IFX23eV0j_14loopautoma_lib2os5linuxNtB5_15LinuxAutomationNtNtB9_6domain10Automation10mouse_down
FN:278,_RNvXs0_NtNtCs54IFX23eV0j_14loopautoma_lib2os5linuxNtB5_15LinuxAutomationNtNtB9_6domain10Automation11move_cursor
FN:299,_RNvXs0_NtNtCs54IFX23eV0j_14loopautoma_lib2os5linuxNtB5_15LinuxAutomationNtNtB9_6domain10Automation3key
FN:282,_RNvXs0_NtNtCs54IFX23eV0j_14loopautoma_lib2os5linuxNtB5_15LinuxAutomationNtNtB9_6domain10Automation5click
FN:326,_RNvXs0_NtNtCs54IFX23eV0j_14loopautoma_lib2os5linuxNtB5_15LinuxAutomationNtNtB9_6domain10Automation6key_up
FN:312,_RNvXs0_NtNtCs54IFX23eV0j_14loopautoma_lib2os5linuxNtB5_15LinuxAutomationNtNtB9_6domain10Automation8key_down
FN:308,_RNvXs0_NtNtCs54IFX23eV0j_14loopautoma_lib2os5linuxNtB5_15LinuxAutomationNtNtB9_6domain10Automation8mouse_up
FN:287,_RNvXs0_NtNtCs54IFX23eV0j_14loopautoma_lib2os5linuxNtB5_15LinuxAutomationNtNtB9_6domain10Automation9type_text
FN:389,_RNvXs1_NtNtCs54IFX23eV0j_14loopautoma_lib2os5linuxNtB5_17LinuxInputCaptureNtNtCs4Vq2ZLagKfv_4core7default7Default7default
FN:414,_RNvXs2_NtNtCs54IFX23eV0j_14loopautoma_lib2os5linuxNtB5_17LinuxInputCaptureNtNtB9_6domain12InputCapture4stop
FN:399,_RNvXs2_NtNtCs54IFX23eV0j_14loopautoma_lib2os5linuxNtB5_17LinuxInputCaptureNtNtB9_6domain12InputCapture5start
FN:427,_RNvXs3_NtNtCs54IFX23eV0j_14loopautoma_lib2os5linuxNtB5_17LinuxInputCaptureNtNtNtCs4Vq2ZLagKfv_4core3ops4drop4Drop4drop
FNDA:0,_RINvMs_NtNtCsh9acLuEY8XH_14loopautoma_lib2os5linuxNtB5_15LinuxAutomation9with_connuNCNvB2_11send_button0EB9_
FNDA:0,_RINvMs_NtNtCsh9acLuEY8XH_14loopautoma_lib2os5linuxNtB5_15LinuxAutomation9with_connuNCNvB2_11send_motion0EB9_
FNDA:0,_RINvMs_NtNtCsh9acLuEY8XH_14loopautoma_lib2os5linuxNtB5_15LinuxAutomation9with_connuNCNvB2_12send_keycode0EB9_
FNDA:0,_RNCINvMs_NtNtCsh9acLuEY8XH_14loopautoma_lib2os5linuxNtB7_15LinuxAutomation9with_connuNCNvB4_11send_button0E0Bb_
FNDA:0,_RNCINvMs_NtNtCsh9acLuEY8XH_14loopautoma_lib2os5linuxNtB7_15LinuxAutomation9with_connuNCNvB4_11send_motion0E0Bb_
FNDA:0,_RNCINvMs_NtNtCsh9acLuEY8XH_14loopautoma_lib2os5linuxNtB7_15LinuxAutomation9with_connuNCNvB4_12send_keycode0E0Bb_
FNDA:0,_RNCNCNvMs_NtNtCsh9acLuEY8XH_14loopautoma_lib2os5linuxNtB8_15LinuxAutomation11send_button00Bc_
FNDA:0,_RNCNCNvMs_NtNtCsh9acLuEY8XH_14loopautoma_lib2os5linuxNtB8_15LinuxAutomation11send_button0s_0Bc_
FNDA:0,_RNCNCNvMs_NtNtCsh9acLuEY8XH_14loopautoma_lib2os5linuxNtB8_15LinuxAutomation11send_motion00Bc_
FNDA:0,_RNCNCNvMs_NtNtCsh9acLuEY8XH_14loopautoma_lib2os5linuxNtB8_15LinuxAutomation11send_motion0s_0Bc_
FNDA:0,_RNCNCNvMs_NtNtCsh9acLuEY8XH_14loopautoma_lib2os5linuxNtB8_15LinuxAutomation12send_keycode00Bc_
FNDA:0,_RNCNCNvMs_NtNtCsh9acLuEY8XH_14loopautoma_lib2os5linuxNtB8_15LinuxAutomation12send_keycode0s_0Bc_
FNDA:0,_RNCNvMs4_NtNtCsh9acLuEY8XH_14loopautoma_lib2os5linuxNtB7_14KeyboardLookup15from_connections_0Bb_
FNDA:0,_RNCNvMs_NtNtCsh9acLuEY8XH_14loopautoma_lib2os5linuxNtB6_15LinuxAutomation11send_button0Ba_
FNDA:0,_RNCNvMs_NtNtCsh9acLuEY8XH_14loopautoma_lib2os5linuxNtB6_15LinuxAutomation11send_motion0Ba_
FNDA:0,_RNCNvMs_NtNtCsh9acLuEY8XH_14loopautoma_lib2os5linuxNtB6_15LinuxAutomation12send_keycode0Ba_
FNDA:0,_RNCNvMs_NtNtCsh9acLuEY8XH_14loopautoma_lib2os5linuxNtB6_15LinuxAutomation3new0Ba_
FNDA:0,_RNCNvNtNtCsh9acLuEY8XH_14loopautoma_lib2os5linux12find_monitor0B7_
FNDA:0,_RNCNvNtNtCsh9acLuEY8XH_14loopautoma_lib2os5linux12find_monitors_0B7_
FNDA:0,_RNCNvNtNtCsh9acLuEY8XH_14loopautoma_lib2os5linux13select_xinput0B7_
FNDA:0,_RNCNvNtNtCsh9acLuEY8XH_14loopautoma_lib2os5linux13select_xinputs_0B7_
FNDA:0,_RNCNvNtNtCsh9acLuEY8XH_14loopautoma_lib2os5linux14run_input_loop0B7_
FNDA:0,_RNCNvNtNtCsh9acLuEY8XH_14loopautoma_lib2os5linux19open_xcb_connection0B7_
FNDA:0,_RNCNvXNtNtCsh9acLuEY8XH_14loopautoma_lib2os5linuxNtB4_12LinuxCaptureNtNtB8_6domain13ScreenCapture14capture_region0B8_
FNDA:0,_RNCNvXNtNtCsh9acLuEY8XH_14loopautoma_lib2os5linuxNtB4_12LinuxCaptureNtNtB8_6domain13ScreenCapture8displays0B8_
FNDA:0,_RNCNvXs0_NtNtCsh9acLuEY8XH_14loopautoma_lib2os5linuxNtB7_15LinuxAutomationNtNtBb_6domain10Automation3key0Bb_
FNDA:0,_RNCNvXs0_NtNtCsh9acLuEY8XH_14loopautoma_lib2os5linuxNtB7_15LinuxAutomationNtNtBb_6domain10Automation6key_up0Bb_
FNDA:0,_RNCNvXs0_NtNtCsh9acLuEY8XH_14loopautoma_lib2os5linuxNtB7_15LinuxAutomationNtNtBb_6domain10Automation8key_down0Bb_
FNDA:0,_RNCNvXs2_NtNtCsh9acLuEY8XH_14loopautoma_lib2os5linuxNtB7_17LinuxInputCaptureNtNtBb_6domain12InputCapture5start0Bb_
FNDA:0,_RNvMs4_NtNtCsh9acLuEY8XH_14loopautoma_lib2os5linuxNtB5_14KeyboardLookup11clamp_coord
FNDA:0,_RNvMs4_NtNtCsh9acLuEY8XH_14loopautoma_lib2os5linuxNtB5_14KeyboardLookup15from_connection
FNDA:0,_RNvMs5_NtNtCsh9acLuEY8XH_14loopautoma_lib2os5linuxNtB5_14XkbStateBundle3new
FNDA:0,_RNvMs_NtNtCsh9acLuEY8XH_14loopautoma_lib2os5linuxNtB4_15LinuxAutomation11send_button
FNDA:0,_RNvMs_NtNtCsh9acLuEY8XH_14loopautoma_lib2os5linuxNtB4_15LinuxAutomation11send_keysym
FNDA:0,_RNvMs_NtNtCsh9acLuEY8XH_14loopautoma_lib2os5linuxNtB4_15LinuxAutomation11send_motion
FNDA:0,_RNvMs_NtNtCsh9acLuEY8XH_14loopautoma_lib2os5linuxNtB4_15LinuxAutomation12key_from_str
FNDA:0,_RNvMs_NtNtCsh9acLuEY8XH_14loopautoma_lib2os5linuxNtB4_15LinuxAutomation12send_keycode
FNDA:0,_RNvMs_NtNtCsh9acLuEY8XH_14loopautoma_lib2os5linuxNtB4_15LinuxAutomation14send_with_mods
FNDA:0,_RNvMs_NtNtCsh9acLuEY8XH_14loopautoma_lib2os5linuxNtB4_15LinuxAutomation3new
FNDA:0,_RNvNtNtCsh9acLuEY8XH_14loopautoma_lib2os5linux12find_monitor
FNDA:0,_RNvNtNtCsh9acLuEY8XH_14loopautoma_lib2os5linux13select_xinput
FNDA:0,_RNvNtNtCsh9acLuEY8XH_14loopautoma_lib2os5linux14run_input_loop
FNDA:0,_RNvNtNtCsh9acLuEY8XH_14loopautoma_lib2os5linux16pointer_position
FNDA:0,_RNvNtNtCsh9acLuEY8XH_14loopautoma_lib2os5linux19handle_xinput_event
FNDA:0,_RNvNtNtCsh9acLuEY8XH_14loopautoma_lib2os5linux19open_xcb_connection
FNDA:0,_RNvNtNtCsh9acLuEY8XH_14loopautoma_lib2os5linux20build_keyboard_event
FNDA:0,_RNvNtNtCsh9acLuEY8XH_14loopautoma_lib2os5linux20modifiers_from_state
FNDA:0,_RNvNtNtCsh9acLuEY8XH_14loopautoma_lib2os5linux23core_keyboard_device_id
FNDA:0,_RNvNtNtCsh9acLuEY8XH_14loopautoma_lib2os5linux23to_display_info_monitor
FNDA:0,_RNvNtNtCsh9acLuEY8XH_14loopautoma_lib2os5linux24mouse_button_from_detail
FNDA:0,_RNvNtNtCsh9acLuEY8XH_14loopautoma_lib2os5linux24scroll_delta_from_button
FNDA:0,_RNvNtNtCsh9acLuEY8XH_14loopautoma_lib2os5linux6now_ms
FNDA:0,_RNvXNtNtCsh9acLuEY8XH_14loopautoma_lib2os5linuxNtB2_12LinuxCaptureNtNtB6_6domain13ScreenCapture11hash_region
FNDA:0,_RNvXNtNtCsh9acLuEY8XH_14loopautoma_lib2os5linuxNtB2_12LinuxCaptureNtNtB6_6domain13ScreenCapture14capture_region
FNDA:0,_RNvXNtNtCsh9acLuEY8XH_14loopautoma_lib2os5linuxNtB2_12LinuxCaptureNtNtB6_6domain13ScreenCapture8displays
FNDA:0,_RNvXs0_NtNtCsh9acLuEY8XH_14loopautoma_lib2os5linuxNtB5_15LinuxAutomationNtNtB9_6domain10Automation10mouse_down
FNDA:0,_RNvXs0_NtNtCsh9acLuEY8XH_14loopautoma_lib2os5linuxNtB5_15LinuxAutomationNtNtB9_6domain10Automation11move_cursor
FNDA:0,_RNvXs0_NtNtCsh9acLuEY8XH_14loopautoma_lib2os5linuxNtB5_15LinuxAutomationNtNtB9_6domain10Automation3key
FNDA:0,_RNvXs0_NtNtCsh9acLuEY8XH_14loopautoma_lib2os5linuxNtB5_15LinuxAutomationNtNtB9_6domain10Automation5click
FNDA:0,_RNvXs0_NtNtCsh9acLuEY8XH_14loopautoma_lib2os5linuxNtB5_15LinuxAutomationNtNtB9_6domain10Automation6key_up
FNDA:0,_RNvXs0_NtNtCsh9acLuEY8XH_14loopautoma_lib2os5linuxNtB5_15LinuxAutomationNtNtB9_6domain10Automation8key_down
FNDA:0,_RNvXs0_NtNtCsh9acLuEY8XH_14loopautoma_lib2os5linuxNtB5_15LinuxAutomationNtNtB9_6domain10Automation8mouse_up
FNDA:0,_RNvXs0_NtNtCsh9acLuEY8XH_14loopautoma_lib2os5linuxNtB5_15LinuxAutomationNtNtB9_6domain10Automation9type_text
FNDA:0,_RNvXs1_NtNtCsh9acLuEY8XH_14loopautoma_lib2os5linuxNtB5_17LinuxInputCaptureNtNtCs4Vq2ZLagKfv_4core7default7Default7default
FNDA:0,_RNvXs2_NtNtCsh9acLuEY8XH_14loopautoma_lib2os5linuxNtB5_17LinuxInputCaptureNtNtB9_6domain12InputCapture4stop
FNDA:0,_RNvXs2_NtNtCsh9acLuEY8XH_14loopautoma_lib2os5linuxNtB5_17LinuxInputCaptureNtNtB9_6domain12InputCapture5start
FNDA:0,_RNvXs3_NtNtCsh9acLuEY8XH_14loopautoma_lib2os5linuxNtB5_17LinuxInputCaptureNtNtNtCs4Vq2ZLagKfv_4core3ops4drop4Drop4drop
FNDA:0,_RINvMs_NtNtCs54IFX23eV0j_14loopautoma_lib2os5linuxNtB5_15LinuxAutomation9with_connppEB9_
FNDA:0,_RNCINvMs_NtNtCs54IFX23eV0j_14loopautoma_lib2os5linuxNtB7_15LinuxAutomation9with_connppE0Bb_
FNDA:0,_RNCNCNvMs_NtNtCs54IFX23eV0j_14loopautoma_lib2os5linuxNtB8_15LinuxAutomation11send_button00Bc_
FNDA:0,_RNCNCNvMs_NtNtCs54IFX23eV0j_14loopautoma_lib2os5linuxNtB8_15LinuxAutomation11send_button0s_0Bc_
FNDA:0,_RNCNCNvMs_NtNtCs54IFX23eV0j_14loopautoma_lib2os5linuxNtB8_15LinuxAutomation11send_motion00Bc_
FNDA:0,_RNCNCNvMs_NtNtCs54IFX23eV0j_14loopautoma_lib2os5linuxNtB8_15LinuxAutomation11send_motion0s_0Bc_
FNDA:0,_RNCNCNvMs_NtNtCs54IFX23eV0j_14loopautoma_lib2os5linuxNtB8_15LinuxAutomation12send_keycode00Bc_
FNDA:0,_RNCNCNvMs_NtNtCs54IFX23eV0j_14loopautoma_lib2os5linuxNtB8_15LinuxAutomation12send_keycode0s_0Bc_
FNDA:0,_RNCNvMs4_NtNtCs54IFX23eV0j_14loopautoma_lib2os5linuxNtB7_14KeyboardLookup15from_connections_0Bb_
FNDA:0,_RNCNvMs_NtNtCs54IFX23eV0j_14loopautoma_lib2os5linuxNtB6_15LinuxAutomation11send_button0Ba_
FNDA:0,_RNCNvMs_NtNtCs54IFX23eV0j_14loopautoma_lib2os5linuxNtB6_15LinuxAutomation11send_motion0Ba_
FNDA:0,_RNCNvMs_NtNtCs54IFX23eV0j_14loopautoma_lib2os5linuxNtB6_15LinuxAutomation12send_keycode0Ba_
FNDA:0,_RNCNvMs_NtNtCs54IFX23eV0j_14loopautoma_lib2os5linuxNtB6_15LinuxAutomation3new0Ba_
FNDA:0,_RNCNvNtNtCs54IFX23eV0j_14loopautoma_lib2os5linux12find_monitor0B7_
FNDA:0,_RNCNvNtNtCs54IFX23eV0j_14loopautoma_lib2os5linux12find_monitors_0B7_
FNDA:0,_RNCNvNtNtCs54IFX23eV0j_14loopautoma_lib2os5linux13select_xinput0B7_
FNDA:0,_RNCNvNtNtCs54IFX23eV0j_14loopautoma_lib2os5linux13select_xinputs_0B7_
FNDA:0,_RNCNvNtNtCs54IFX23eV0j_14loopautoma_lib2os5linux14run_input_loop0B7_
FNDA:0,_RNCNvNtNtCs54IFX23eV0j_14loopautoma_lib2os5linux19open_xcb_connection0B7_
FNDA:0,_RNCNvXNtNtCs54IFX23eV0j_14loopautoma_lib2os5linuxNtB4_12LinuxCaptureNtNtB8_6domain13ScreenCapture14capture_region0B8_
FNDA:0,_RNCNvXNtNtCs54IFX23eV0j_14loopautoma_lib2os5linuxNtB4_12LinuxCaptureNtNtB8_6domain13ScreenCapture8displays0B8_
FNDA:0,_RNCNvXs0_NtNtCs54IFX23eV0j_14loopautoma_lib2os5linuxNtB7_15LinuxAutomationNtNtBb_6domain10Automation3key0Bb_
FNDA:0,_RNCNvXs0_NtNtCs54IFX23eV0j_14loopautoma_lib2os5linuxNtB7_15LinuxAutomationNtNtBb_6domain10Automation6key_up0Bb_
FNDA:0,_RNCNvXs0_NtNtCs54IFX23eV0j_14loopautoma_lib2os5linuxNtB7_15LinuxAutomationNtNtBb_6domain10Automation8key_down0Bb_
FNDA:0,_RNCNvXs2_NtNtCs54IFX23eV0j_14loopautoma_lib2os5linuxNtB7_17LinuxInputCaptureNtNtBb_6domain12InputCapture5start0Bb_
FNDA:0,_RNvMs4_NtNtCs54IFX23eV0j_14loopautoma_lib2os5linuxNtB5_14KeyboardLookup11clamp_coord
FNDA:0,_RNvMs4_NtNtCs54IFX23eV0j_14loopautoma_lib2os5linuxNtB5_14KeyboardLookup15from_connection
FNDA:0,_RNvMs5_NtNtCs54IFX23eV0j_14loopautoma_lib2os5linuxNtB5_14XkbStateBundle3new
FNDA:0,_RNvMs_NtNtCs54IFX23eV0j_14loopautoma_lib2os5linuxNtB4_15LinuxAutomation11send_button
FNDA:0,_RNvMs_NtNtCs54IFX23eV0j_14loopautoma_lib2os5linuxNtB4_15LinuxAutomation11send_keysym
FNDA:0,_RNvMs_NtNtCs54IFX23eV0j_14loopautoma_lib2os5linuxNtB4_15LinuxAutomation11send_motion
FNDA:0,_RNvMs_NtNtCs54IFX23eV0j_14loopautoma_lib2os5linuxNtB4_15LinuxAutomation12key_from_str
FNDA:0,_RNvMs_NtNtCs54IFX23eV0j_14loopautoma_lib2os5linuxNtB4_15LinuxAutomation12send_keycode
FNDA:0,_RNvMs_NtNtCs54IFX23eV0j_14loopautoma_lib2os5linuxNtB4_15LinuxAutomation14send_with_mods
FNDA:0,_RNvMs_NtNtCs54IFX23eV0j_14loopautoma_lib2os5linuxNtB4_15LinuxAutomation3new
FNDA:0,_RNvNtNtCs54IFX23eV0j_14loopautoma_lib2os5linux12find_monitor
FNDA:0,_RNvNtNtCs54IFX23eV0j_14loopautoma_lib2os5linux13select_xinput
FNDA:0,_RNvNtNtCs54IFX23eV0j_14loopautoma_lib2os5linux14run_input_loop
FNDA:0,_RNvNtNtCs54IFX23eV0j_14loopautoma_lib2os5linux16pointer_position
FNDA:0,_RNvNtNtCs54IFX23eV0j_14loopautoma_lib2os5linux19handle_xinput_event
FNDA:0,_RNvNtNtCs54IFX23eV0j_14loopautoma_lib2os5linux19open_xcb_connection
FNDA:0,_RNvNtNtCs54IFX23eV0j_14loopautoma_lib2os5linux20build_keyboard_event
FNDA:0,_RNvNtNtCs54IFX23eV0j_14loopautoma_lib2os5linux20modifiers_from_state
FNDA:0,_RNvNtNtCs54IFX23eV0j_14loopautoma_lib2os5linux23core_keyboard_device_id
FNDA:0,_RNvNtNtCs54IFX23eV0j_14loopautoma_lib2os5linux23to_display_info_monitor
FNDA:0,_RNvNtNtCs54IFX23eV0j_14loopautoma_lib2os5linux24mouse_button_from_detail
FNDA:0,_RNvNtNtCs54IFX23eV0j_14loopautoma_lib2os5linux24scroll_delta_from_button
FNDA:0,_RNvNtNtCs54IFX23eV0j_14loopautoma_lib2os5linux6now_ms
FNDA:0,_RNvXNtNtCs54IFX23eV0j_14loopautoma_lib2os5linuxNtB2_12LinuxCaptureNtNtB6_6domain13ScreenCapture11hash_region
FNDA:0,_RNvXNtNtCs54IFX23eV0j_14loopautoma_lib2os5linuxNtB2_12LinuxCaptureNtNtB6_6domain13ScreenCapture14capture_region
FNDA:0,_RNvXNtNtCs54IFX23eV0j_14loopautoma_lib2os5linuxNtB2_12LinuxCaptureNtNtB6_6domain13ScreenCapture8displays
FNDA:0,_RNvXs0_NtNtCs54IFX23eV0j_14loopautoma_lib2os5linuxNtB5_15LinuxAutomationNtNtB9_6domain10Automation10mouse_down
FNDA:0,_RNvXs0_NtNtCs54IFX23eV0j_14loopautoma_lib2os5linuxNtB5_15LinuxAutomationNtNtB9_6domain10Automation11move_cursor
FNDA:0,_RNvXs0_NtNtCs54IFX23eV0j_14loopautoma_lib2os5linuxNtB5_15LinuxAutomationNtNtB9_6domain10Automation3key
FNDA:0,_RNvXs0_NtNtCs54IFX23eV0j_14loopautoma_lib2os5linuxNtB5_15LinuxAutomationNtNtB9_6domain10Automation5click
FNDA:0,_RNvXs0_NtNtCs54IFX23eV0j_14loopautoma_lib2os5linuxNtB5_15LinuxAutomationNtNtB9_6domain10Automation6key_up
FNDA:0,_RNvXs0_NtNtCs54IFX23eV0j_14loopautoma_lib2os5linuxNtB5_15LinuxAutomationNtNtB9_6domain10Automation8key_down
FNDA:0,_RNvXs0_NtNtCs54IFX23eV0j_14loopautoma_lib2os5linuxNtB5_15LinuxAutomationNtNtB9_6domain10Automation8mouse_up
FNDA:0,_RNvXs0_NtNtCs54IFX23eV0j_14loopautoma_lib2os5linuxNtB5_15LinuxAutomationNtNtB9_6domain10Automation9type_text
FNDA:0,_RNvXs1_NtNtCs54IFX23eV0j_14loopautoma_lib2os5linuxNtB5_17LinuxInputCaptureNtNtCs4Vq2ZLagKfv_4core7default7Default7default
FNDA:0,_RNvXs2_NtNtCs54IFX23eV0j_14loopautoma_lib2os5linuxNtB5_17LinuxInputCaptureNtNtB9_6domain12InputCapture4stop
FNDA:0,_RNvXs2_NtNtCs54IFX23eV0j_14loopautoma_lib2os5linuxNtB5_17LinuxInputCaptureNtNtB9_6domain12InputCapture5start
FNDA:0,_RNvXs3_NtNtCs54IFX23eV0j_14loopautoma_lib2os5linuxNtB5_17LinuxInputCaptureNtNtNtCs4Vq2ZLagKfv_4core3ops4drop4Drop4drop
FNF:63
FNH:0
DA:46,0
DA:49,0
DA:50,0
DA:51,0
DA:52,0
DA:53,0
DA:54,0
DA:55,0
DA:56,0
DA:57,0
DA:58,0
DA:59,0
DA:60,0
DA:61,0
DA:62,0
DA:63,0
DA:64,0
DA:65,0
DA:66,0
DA:67,0
DA:68,0
DA:69,0
DA:70,0
DA:71,0
DA:72,0
DA:80,0
DA:82,0
DA:83,0
DA:86,0
DA:87,0
DA:88,0
DA:89,0
DA:90,0
DA:91,0
DA:92,0
DA:93,0
DA:94,0
DA:95,0
DA:96,0
DA:97,0
DA:98,0
DA:99,0
DA:100,0
DA:101,0
DA:102,0
DA:103,0
DA:104,0
DA:105,0
DA:106,0
DA:107,0
DA:117,0
DA:119,0
DA:122,0
DA:123,0
DA:124,0
DA:133,0
DA:145,0
DA:146,0
DA:147,0
DA:148,0
DA:149,0
DA:150,0
DA:151,0
DA:153,0
DA:154,0
DA:155,0
DA:156,0
DA:157,0
DA:158,0
DA:159,0
DA:161,0
DA:162,0
DA:163,0
DA:164,0
DA:165,0
DA:166,0
DA:167,0
DA:168,0
DA:169,0
DA:170,0
DA:172,0
DA:173,0
DA:174,0
DA:175,0
DA:176,0
DA:180,0
DA:181,0
DA:182,0
DA:185,0
DA:186,0
DA:187,0
DA:188,0
DA:190,0
DA:191,0
DA:192,0
DA:193,0
DA:194,0
DA:196,0
DA:197,0
DA:198,0
DA:199,0
DA:201,0
DA:203,0
DA:205,0
DA:210,0
DA:211,0
DA:212,0
DA:213,0
DA:215,0
DA:216,0
DA:217,0
DA:218,0
DA:219,0
DA:221,0
DA:223,0
DA:225,0
DA:230,0
DA:231,0
DA:232,0
DA:233,0
DA:235,0
DA:236,0
DA:237,0
DA:239,0
DA:241,0
DA:243,0
DA:244,0
DA:245,0
DA:246,0
DA:247,0
DA:248,0
DA:249,0
DA:250,0
DA:251,0
DA:252,0
DA:253,0
DA:254,0
DA:255,0
DA:256,0
DA:257,0
DA:258,0
DA:260,0
DA:261,0
DA:262,0
DA:263,0
DA:264,0
DA:265,0
DA:266,0
DA:267,0
DA:268,0
DA:269,0
DA:271,0
DA:273,0
DA:278,0
DA:279,0
DA:280,0
DA:282,0
DA:283,0
DA:284,0
DA:285,0
DA:287,0
DA:288,0
DA:289,0
DA:290,0
DA:292,0
DA:293,0
DA:296,0
DA:297,0
DA:299,0
DA:300,0
DA:301,0
DA:302,0
DA:304,0
DA:305,0
DA:306,0
DA:308,0
DA:309,0
DA:310,0
DA:312,0
DA:313,0
DA:314,0
DA:315,0
DA:316,0
DA:317,0
DA:318,0
DA:319,0
DA:320,0
DA:322,0
DA:324,0
DA:326,0
DA:327,0
DA:328,0
DA:329,0
DA:330,0
DA:331,0
DA:332,0
DA:333,0
DA:334,0
DA:335,0
DA:337,0
DA:339,0
DA:342,0
DA:343,0
DA:344,0
DA:345,0
DA:346,0
DA:347,0
DA:350,0
DA:351,0
DA:352,0
DA:353,0
DA:354,0
DA:355,0
DA:356,0
DA:357,0
DA:358,0
DA:359,0
DA:360,0
DA:361,0
DA:364,0
DA:365,0
DA:366,0
DA:367,0
DA:368,0
DA:369,0
DA:370,0
DA:371,0
DA:372,0
DA:373,0
DA:374,0
DA:375,0
DA:376,0
DA:377,0
DA:378,0
DA:379,0
DA:389,0
DA:390,0
DA:391,0
DA:392,0
DA:393,0
DA:394,0
DA:399,0
DA:400,0
DA:401,0
DA:402,0
DA:403,0
DA:404,0
DA:405,0
DA:406,0
DA:407,0
DA:408,0
DA:409,0
DA:410,0
DA:411,0
DA:412,0
DA:414,0
DA:415,0
DA:416,0
DA:417,0
DA:418,0
DA:419,0
DA:420,0
DA:421,0
DA:422,0
DA:427,0
DA:428,0
DA:429,0
DA:447,0
DA:448,0
DA:449,0
DA:450,0
DA:451,0
DA:452,0
DA:453,0
DA:456,0
DA:457,0
DA:458,0
DA:459,0
DA:460,0
DA:461,0
DA:462,0
DA:463,0
DA:464,0
DA:465,0
DA:466,0
DA:467,0
DA:468,0
DA:469,0
DA:470,0
DA:471,0
DA:472,0
DA:473,0
DA:474,0
DA:475,0
DA:476,0
DA:477,0
DA:478,0
DA:479,0
DA:480,0
DA:484,0
DA:485,0
DA:486,0
DA:488,0
DA:490,0
DA:491,0
DA:492,0
DA:493,0
DA:494,0
DA:495,0
DA:496,0
DA:497,0
DA:498,0
DA:499,0
DA:500,0
DA:501,0
DA:502,0
DA:503,0
DA:505,0
DA:506,0
DA:507,0
DA:519,0
DA:520,0
DA:521,0
DA:522,0
DA:523,0
DA:524,0
DA:525,0
DA:526,0
DA:527,0
DA:528,0
DA:529,0
DA:530,0
DA:531,0
DA:532,0
DA:533,0
DA:534,0
DA:535,0
DA:536,0
DA:537,0
DA:538,0
DA:539,0
DA:540,0
DA:541,0
DA:542,0
DA:543,0
DA:544,0
DA:547,0
DA:548,0
DA:549,0
DA:550,0
DA:551,0
DA:552,0
DA:553,0
DA:557,0
DA:558,0
DA:559,0
DA:562,0
DA:563,0
DA:564,0
DA:565,0
DA:566,0
DA:567,0
DA:568,0
DA:570,0
DA:572,0
DA:575,0
DA:576,0
DA:577,0
DA:578,0
DA:579,0
DA:580,0
DA:581,0
DA:582,0
DA:583,0
DA:584,0
DA:585,0
DA:586,0
DA:587,0
DA:588,0
DA:589,0
DA:590,0
DA:591,0
DA:592,0
DA:593,0
DA:596,0
DA:597,0
DA:600,0
DA:601,0
DA:602,0
DA:603,0
DA:604,0
DA:605,0
DA:606,0
DA:607,0
DA:608,0
DA:609,0
DA:610,0
DA:611,0
DA:612,0
DA:613,0
DA:615,0
DA:616,0
DA:617,0
DA:618,0
DA:619,0
DA:620,0
DA:622,0
DA:623,0
DA:624,0
DA:625,0
DA:626,0
DA:627,0
DA:628,0
DA:629,0
DA:630,0
DA:631,0
DA:632,0
DA:633,0
DA:634,0
DA:635,0
DA:636,0
DA:637,0
DA:638,0
DA:639,0
DA:640,0
DA:642,0
DA:643,0
DA:644,0
DA:645,0
DA:646,0
DA:647,0
DA:648,0
DA:649,0
DA:650,0
DA:651,0
DA:652,0
DA:653,0
DA:654,0
DA:655,0
DA:656,0
DA:658,0
DA:659,0
DA:660,0
DA:661,0
DA:662,0
DA:663,0
DA:664,0
DA:665,0
DA:666,0
DA:667,0
DA:669,0
DA:671,0
DA:674,0
DA:675,0
DA:676,0
DA:677,0
DA:678,0
DA:679,0
DA:680,0
DA:681,0
DA:682,0
DA:684,0
DA:686,0
DA:687,0
DA:688,0
DA:689,0
DA:690,0
DA:691,0
DA:692,0
DA:694,0
DA:695,0
DA:696,0
DA:697,0
DA:698,0
DA:700,0
DA:702,0
DA:703,0
DA:705,0
DA:708,0
DA:709,0
DA:710,0
DA:711,0
DA:712,0
DA:713,0
DA:714,0
DA:715,0
DA:718,0
DA:719,0
DA:720,0
DA:721,0
DA:722,0
DA:723,0
DA:725,0
DA:728,0
DA:729,0
DA:730,0
DA:731,0
DA:732,0
DA:733,0
DA:734,0
DA:736,0
DA:739,0
DA:740,0
DA:741,0
DA:742,0
DA:743,0
DA:746,0
DA:747,0
DA:748,0
DA:749,0
DA:750,0
DA:751,0
DA:752,0
DA:753,0
DA:754,0
DA:755,0
DA:756,0
DA:757,0
DA:758,0
DA:759,0
DA:760,0
DA:761,0
BRF:0
BRH:0
LF:546
LH:0
end_of_record
SF:/home/chris/dev/loopautoma/src-tauri/src/soak.rs
FN:44,_RNvMs_NtCsh9acLuEY8XH_14loopautoma_lib4soakNtB4_10SoakReport3new
FN:91,_RNvNtCsh9acLuEY8XH_14loopautoma_lib4soak13build_profile
FN:130,_RNvNtCsh9acLuEY8XH_14loopautoma_lib4soak14process_events
FN:57,_RNvNtCsh9acLuEY8XH_14loopautoma_lib4soak8run_soak
FN:20,_RNvXNtCsh9acLuEY8XH_14loopautoma_lib4soakNtB2_10SoakConfigNtNtCs4Vq2ZLagKfv_4core7default7Default7default
FN:44,_RNvMs_NtCs54IFX23eV0j_14loopautoma_lib4soakNtB4_10SoakReport3new
FN:91,_RNvNtCs54IFX23eV0j_14loopautoma_lib4soak13build_profile
FN:130,_RNvNtCs54IFX23eV0j_14loopautoma_lib4soak14process_events
FN:57,_RNvNtCs54IFX23eV0j_14loopautoma_lib4soak8run_soak
FN:20,_RNvXNtCs54IFX23eV0j_14loopautoma_lib4soakNtB2_10SoakConfigNtNtCs4Vq2ZLagKfv_4core7default7Default7default
FNDA:0,_RNvMs_NtCsh9acLuEY8XH_14loopautoma_lib4soakNtB4_10SoakReport3new
FNDA:0,_RNvNtCsh9acLuEY8XH_14loopautoma_lib4soak13build_profile
FNDA:0,_RNvNtCsh9acLuEY8XH_14loopautoma_lib4soak14process_events
FNDA:0,_RNvNtCsh9acLuEY8XH_14loopautoma_lib4soak8run_soak
FNDA:0,_RNvXNtCsh9acLuEY8XH_14loopautoma_lib4soakNtB2_10SoakConfigNtNtCs4Vq2ZLagKfv_4core7default7Default7default
FNDA:1,_RNvMs_NtCs54IFX23eV0j_14loopautoma_lib4soakNtB4_10SoakReport3new
FNDA:1,_RNvNtCs54IFX23eV0j_14loopautoma_lib4soak13build_profile
FNDA:3,_RNvNtCs54IFX23eV0j_14loopautoma_lib4soak14process_events
FNDA:1,_RNvNtCs54IFX23eV0j_14loopautoma_lib4soak8run_soak
FNDA:1,_RNvXNtCs54IFX23eV0j_14loopautoma_lib4soakNtB2_10SoakConfigNtNtCs4Vq2ZLagKfv_4core7default7Default7default
FNF:5
FNH:5
DA:20,1
DA:21,1
DA:22,1
DA:23,1
DA:24,1
DA:25,1
DA:26,1
DA:27,1
DA:28,1
DA:29,1
DA:44,1
DA:45,1
DA:46,1
DA:47,1
DA:48,1
DA:49,1
DA:50,1
DA:51,1
DA:52,1
DA:53,1
DA:54,1
DA:57,1
DA:58,1
DA:59,1
DA:60,1
DA:61,1
DA:63,1
DA:64,1
DA:65,1
DA:66,1
DA:68,1
DA:69,1
DA:70,2
DA:71,2
DA:72,2
DA:73,2
DA:74,2
DA:75,1
DA:76,1
DA:77,1
DA:80,1
DA:81,0
DA:82,0
DA:83,1
DA:85,1
DA:86,1
DA:87,1
DA:88,1
DA:89,1
DA:91,1
DA:92,1
DA:93,1
DA:94,1
DA:95,1
DA:96,1
DA:97,1
DA:98,1
DA:99,1
DA:100,1
DA:101,1
DA:102,1
DA:103,1
DA:104,1
DA:105,1
DA:106,1
DA:107,1
DA:108,1
DA:109,1
DA:110,1
DA:111,1
DA:112,1
DA:113,1
DA:114,1
DA:115,1
DA:116,1
DA:117,1
DA:118,1
DA:119,1
DA:120,1
DA:121,1
DA:122,1
DA:123,1
DA:124,1
DA:125,1
DA:126,1
DA:127,1
DA:128,1
DA:130,3
DA:131,8
DA:132,0
DA:133,1
DA:134,0
DA:135,0
DA:136,4
DA:139,3
BRF:0
BRH:0
LF:95
LH:90
end_of_record
SF:/home/chris/dev/loopautoma/src-tauri/src/tests.rs
FN:391,_RNCNvNtNtCs54IFX23eV0j_14loopautoma_lib5tests5testss_30guardrail_trips_on_max_runtime0B7_
FN:133,_RNCNvNtNtCs54IFX23eV0j_14loopautoma_lib5tests5testss_32action_sequence_runs_all_actions0B7_
FN:141,_RNCNvNtNtCs54IFX23eV0j_14loopautoma_lib5tests5testss_32action_sequence_runs_all_actionss_0B7_
FN:997,_RNCNvNtNtCs54IFX23eV0j_14loopautoma_lib5tests5testss_34soak_runner_reports_guardrail_trip0B7_
FN:885,_RNCNvNtNtCs54IFX23eV0j_14loopautoma_lib5tests5testss_38action_sequence_stops_on_first_failure0B7_
FN:887,_RNCNvNtNtCs54IFX23eV0j_14loopautoma_lib5tests5testss_38action_sequence_stops_on_first_failures_0B7_
FN:651,_RNCNvNtNtCs54IFX23eV0j_14loopautoma_lib5tests5testss_38e2e_happy_path_emits_expected_sequence0B7_
FN:659,_RNCNvNtNtCs54IFX23eV0j_14loopautoma_lib5tests5testss_38e2e_happy_path_emits_expected_sequences0_0B7_
FN:664,_RNCNvNtNtCs54IFX23eV0j_14loopautoma_lib5tests5testss_38e2e_happy_path_emits_expected_sequences1_0B7_
FN:669,_RNCNvNtNtCs54IFX23eV0j_14loopautoma_lib5tests5testss_38e2e_happy_path_emits_expected_sequences2_0B7_
FN:654,_RNCNvNtNtCs54IFX23eV0j_14loopautoma_lib5tests5testss_38e2e_happy_path_emits_expected_sequences_0B7_
FN:466,_RNCNvNtNtCs54IFX23eV0j_14loopautoma_lib5tests5testss_43guardrail_trips_on_max_activations_per_hour0B7_
FN:548,_RNCNvNtNtCs54IFX23eV0j_14loopautoma_lib5tests5testss_43max_activations_window_resets_after_an_hour0B7_
FN:759,_RNCNvNtNtCs54IFX23eV0j_14loopautoma_lib5tests5testss_44soak_run_time_dilated_with_guardrails_stable0B7_
FN:761,_RNCNvNtNtCs54IFX23eV0j_14loopautoma_lib5tests5testss_44soak_run_time_dilated_with_guardrails_stables_0B7_
FN:785,_RNCNvNtNtCs54IFX23eV0j_14loopautoma_lib5tests5testss_47panic_stop_helper_emits_watchdog_and_stop_state0B7_
FN:792,_RNCNvNtNtCs54IFX23eV0j_14loopautoma_lib5tests5testss_47panic_stop_helper_emits_watchdog_and_stop_states0_0B7_
FN:787,_RNCNvNtNtCs54IFX23eV0j_14loopautoma_lib5tests5testss_47panic_stop_helper_emits_watchdog_and_stop_states_0B7_
FN:319,_RNCNvNtNtCs54IFX23eV0j_14loopautoma_lib5tests5testss_57profile_driven_monitor_emits_events_and_respects_cooldown0B7_
FN:325,_RNCNvNtNtCs54IFX23eV0j_14loopautoma_lib5tests5testss_57profile_driven_monitor_emits_events_and_respects_cooldowns0_0B7_
FN:327,_RNCNvNtNtCs54IFX23eV0j_14loopautoma_lib5tests5testss_57profile_driven_monitor_emits_events_and_respects_cooldowns1_0B7_
FN:322,_RNCNvNtNtCs54IFX23eV0j_14loopautoma_lib5tests5testss_57profile_driven_monitor_emits_events_and_respects_cooldowns_0B7_
FN:1006,_RNvNtNtNtCs54IFX23eV0j_14loopautoma_lib5tests5tests11ui_commandss_20normalize_rect_basic
FN:1049,_RNvNtNtNtCs54IFX23eV0j_14loopautoma_lib5tests5tests11ui_commandss_27normalize_rect_minimum_size
FN:1040,_RNvNtNtNtCs54IFX23eV0j_14loopautoma_lib5tests5tests11ui_commandss_33normalize_rect_zero_size_rejected
FN:1017,_RNvNtNtNtCs54IFX23eV0j_14loopautoma_lib5tests5tests11ui_commandss_35normalize_rect_reversed_coordinates
FN:1058,_RNvNtNtNtCs54IFX23eV0j_14loopautoma_lib5tests5tests11ui_commandss_39normalize_rect_all_negative_coordinates
FN:1028,_RNvNtNtNtCs54IFX23eV0j_14loopautoma_lib5tests5tests11ui_commandss_43normalize_rect_negative_coordinates_clamped
FN:46,_RNvMs_NtNtCs54IFX23eV0j_14loopautoma_lib5tests5testsNtB4_8FakeAuto3new
FN:23,_RNvNtNtCs54IFX23eV0j_14loopautoma_lib5tests5tests13displays_stub
FN:17,_RNvNtNtCs54IFX23eV0j_14loopautoma_lib5tests5tests19capture_region_stub
FN:333,_RNvNtNtCs54IFX23eV0j_14loopautoma_lib5tests5testss_30guardrail_trips_on_max_runtime
FN:107,_RNvNtNtCs54IFX23eV0j_14loopautoma_lib5tests5testss_32action_sequence_runs_all_actions
FN:957,_RNvNtNtCs54IFX23eV0j_14loopautoma_lib5tests5testss_32fakes_provide_deterministic_data
FN:75,_RNvNtNtCs54IFX23eV0j_14loopautoma_lib5tests5testss_34interval_trigger_fires_on_interval
FN:987,_RNvNtNtCs54IFX23eV0j_14loopautoma_lib5tests5testss_34soak_runner_reports_guardrail_trip
FN:856,_RNvNtNtCs54IFX23eV0j_14loopautoma_lib5tests5testss_38action_sequence_stops_on_first_failure
FN:564,_RNvNtNtCs54IFX23eV0j_14loopautoma_lib5tests5testss_38e2e_happy_path_emits_expected_sequence
FN:796,_RNvNtNtCs54IFX23eV0j_14loopautoma_lib5tests5testss_38region_condition_handles_empty_regions
FN:805,_RNvNtNtCs54IFX23eV0j_14loopautoma_lib5tests5testss_38region_condition_resets_on_hash_change
FN:157,_RNvNtNtCs54IFX23eV0j_14loopautoma_lib5tests5testss_42monitor_activates_once_when_condition_true
FN:398,_RNvNtNtCs54IFX23eV0j_14loopautoma_lib5tests5testss_43guardrail_trips_on_max_activations_per_hour
FN:475,_RNvNtNtCs54IFX23eV0j_14loopautoma_lib5tests5testss_43max_activations_window_resets_after_an_hour
FN:692,_RNvNtNtCs54IFX23eV0j_14loopautoma_lib5tests5testss_44soak_run_time_dilated_with_guardrails_stable
FN:84,_RNvNtNtCs54IFX23eV0j_14loopautoma_lib5tests5testss_46region_condition_reports_stable_after_duration
FN:769,_RNvNtNtCs54IFX23eV0j_14loopautoma_lib5tests5testss_47panic_stop_helper_emits_watchdog_and_stop_state
FN:891,_RNvNtNtCs54IFX23eV0j_14loopautoma_lib5tests5testss_48monitor_cooldown_prevents_immediate_reactivation
FN:213,_RNvNtNtCs54IFX23eV0j_14loopautoma_lib5tests5testss_57profile_driven_monitor_emits_events_and_respects_cooldown
FN:31,_RNvXNtNtCs54IFX23eV0j_14loopautoma_lib5tests5testsNtB2_7FakeCapNtNtB6_6domain13ScreenCapture11hash_region
FN:34,_RNvXNtNtCs54IFX23eV0j_14loopautoma_lib5tests5testsNtB2_7FakeCapNtNtB6_6domain13ScreenCapture14capture_region
FN:37,_RNvXNtNtCs54IFX23eV0j_14loopautoma_lib5tests5testsNtB2_7FakeCapNtNtB6_6domain13ScreenCapture8displays
FN:358,_RNvXNvNtNtCs54IFX23eV0j_14loopautoma_lib5tests5testss_30guardrail_trips_on_max_runtimeNtB2_1CNtNtB8_6domain13ScreenCapture11hash_region
FN:361,_RNvXNvNtNtCs54IFX23eV0j_14loopautoma_lib5tests5testss_30guardrail_trips_on_max_runtimeNtB2_1CNtNtB8_6domain13ScreenCapture14capture_region
FN:364,_RNvXNvNtNtCs54IFX23eV0j_14loopautoma_lib5tests5testss_30guardrail_trips_on_max_runtimeNtB2_1CNtNtB8_6domain13ScreenCapture8displays
FN:860,_RNvXNvNtNtCs54IFX23eV0j_14loopautoma_lib5tests5testss_38action_sequence_stops_on_first_failureNtB2_10FailActionNtNtB8_6domain6Action4name
FN:863,_RNvXNvNtNtCs54IFX23eV0j_14loopautoma_lib5tests5testss_38action_sequence_stops_on_first_failureNtB2_10FailActionNtNtB8_6domain6Action7execute
FN:609,_RNvXNvNtNtCs54IFX23eV0j_14loopautoma_lib5tests5testss_38e2e_happy_path_emits_expected_sequenceNtB2_3CapNtNtB8_6domain13ScreenCapture11hash_region
FN:612,_RNvXNvNtNtCs54IFX23eV0j_14loopautoma_lib5tests5testss_38e2e_happy_path_emits_expected_sequenceNtB2_3CapNtNtB8_6domain13ScreenCapture14capture_region
FN:615,_RNvXNvNtNtCs54IFX23eV0j_14loopautoma_lib5tests5testss_38e2e_happy_path_emits_expected_sequenceNtB2_3CapNtNtB8_6domain13ScreenCapture8displays
FN:820,_RNvXNvNtNtCs54IFX23eV0j_14loopautoma_lib5tests5testss_38region_condition_resets_on_hash_changeNtB2_4Cap1NtNtB8_6domain13ScreenCapture11hash_region
FN:823,_RNvXNvNtNtCs54IFX23eV0j_14loopautoma_lib5tests5testss_38region_condition_resets_on_hash_changeNtB2_4Cap1NtNtB8_6domain13ScreenCapture14capture_region
FN:826,_RNvXNvNtNtCs54IFX23eV0j_14loopautoma_lib5tests5testss_38region_condition_resets_on_hash_changeNtB2_4Cap1NtNtB8_6domain13ScreenCapture8displays
FN:424,_RNvXNvNtNtCs54IFX23eV0j_14loopautoma_lib5tests5testss_43guardrail_trips_on_max_activations_per_hourNtB2_1CNtNtB8_6domain13ScreenCapture11hash_region
FN:427,_RNvXNvNtNtCs54IFX23eV0j_14loopautoma_lib5tests5testss_43guardrail_trips_on_max_activations_per_hourNtB2_1CNtNtB8_6domain13ScreenCapture14capture_region
FN:430,_RNvXNvNtNtCs54IFX23eV0j_14loopautoma_lib5tests5testss_43guardrail_trips_on_max_activations_per_hourNtB2_1CNtNtB8_6domain13ScreenCapture8displays
FN:501,_RNvXNvNtNtCs54IFX23eV0j_14loopautoma_lib5tests5testss_43max_activations_window_resets_after_an_hourNtB2_1CNtNtB8_6domain13ScreenCapture11hash_region
FN:504,_RNvXNvNtNtCs54IFX23eV0j_14loopautoma_lib5tests5testss_43max_activations_window_resets_after_an_hourNtB2_1CNtNtB8_6domain13ScreenCapture14capture_region
FN:507,_RNvXNvNtNtCs54IFX23eV0j_14loopautoma_lib5tests5testss_43max_activations_window_resets_after_an_hourNtB2_1CNtNtB8_6domain13ScreenCapture8displays
FN:718,_RNvXNvNtNtCs54IFX23eV0j_14loopautoma_lib5tests5testss_44soak_run_time_dilated_with_guardrails_stableNtB2_1CNtNtB8_6domain13ScreenCapture11hash_region
FN:721,_RNvXNvNtNtCs54IFX23eV0j_14loopautoma_lib5tests5testss_44soak_run_time_dilated_with_guardrails_stableNtB2_1CNtNtB8_6domain13ScreenCapture14capture_region
FN:724,_RNvXNvNtNtCs54IFX23eV0j_14loopautoma_lib5tests5testss_44soak_run_time_dilated_with_guardrails_stableNtB2_1CNtNtB8_6domain13ScreenCapture8displays
FN:916,_RNvXNvNtNtCs54IFX23eV0j_14loopautoma_lib5tests5testss_48monitor_cooldown_prevents_immediate_reactivationNtB2_1CNtNtB8_6domain13ScreenCapture11hash_region
FN:919,_RNvXNvNtNtCs54IFX23eV0j_14loopautoma_lib5tests5testss_48monitor_cooldown_prevents_immediate_reactivationNtB2_1CNtNtB8_6domain13ScreenCapture14capture_region
FN:922,_RNvXNvNtNtCs54IFX23eV0j_14loopautoma_lib5tests5testss_48monitor_cooldown_prevents_immediate_reactivationNtB2_1CNtNtB8_6domain13ScreenCapture8displays
FN:257,_RNvXNvNtNtCs54IFX23eV0j_14loopautoma_lib5tests5testss_57profile_driven_monitor_emits_events_and_respects_cooldownNtB2_3CapNtNtB8_6domain13ScreenCapture11hash_region
FN:260,_RNvXNvNtNtCs54IFX23eV0j_14loopautoma_lib5tests5testss_57profile_driven_monitor_emits_events_and_respects_cooldownNtB2_3CapNtNtB8_6domain13ScreenCapture14capture_region
FN:263,_RNvXNvNtNtCs54IFX23eV0j_14loopautoma_lib5tests5testss_57profile_driven_monitor_emits_events_and_respects_cooldownNtB2_3CapNtNtB8_6domain13ScreenCapture8displays
FN:53,_RNvXs0_NtNtCs54IFX23eV0j_14loopautoma_lib5tests5testsNtB5_8FakeAutoNtNtB9_6domain10Automation11move_cursor
FN:68,_RNvXs0_NtNtCs54IFX23eV0j_14loopautoma_lib5tests5testsNtB5_8FakeAutoNtNtB9_6domain10Automation3key
FN:57,_RNvXs0_NtNtCs54IFX23eV0j_14loopautoma_lib5tests5testsNtB5_8FakeAutoNtNtB9_6domain10Automation5click
FN:64,_RNvXs0_NtNtCs54IFX23eV0j_14loopautoma_lib5tests5testsNtB5_8FakeAutoNtNtB9_6domain10Automation9type_text
FN:151,_RNvXs1_NtNtCs54IFX23eV0j_14loopautoma_lib5tests5testsNtB5_13AlwaysTriggerNtNtB9_6domain7Trigger11should_fire
FN:370,_RNvXs_NvNtNtCs54IFX23eV0j_14loopautoma_lib5tests5testss_30guardrail_trips_on_max_runtimeNtB4_1ANtNtBa_6domain10Automation11move_cursor
FN:379,_RNvXs_NvNtNtCs54IFX23eV0j_14loopautoma_lib5tests5testss_30guardrail_trips_on_max_runtimeNtB4_1ANtNtBa_6domain10Automation3key
FN:373,_RNvXs_NvNtNtCs54IFX23eV0j_14loopautoma_lib5tests5testss_30guardrail_trips_on_max_runtimeNtB4_1ANtNtBa_6domain10Automation5click
FN:376,_RNvXs_NvNtNtCs54IFX23eV0j_14loopautoma_lib5tests5testss_30guardrail_trips_on_max_runtimeNtB4_1ANtNtBa_6domain10Automation9type_text
FN:621,_RNvXs_NvNtNtCs54IFX23eV0j_14loopautoma_lib5tests5testss_38e2e_happy_path_emits_expected_sequenceNtB4_4AutoNtNtBa_6domain10Automation11move_cursor
FN:630,_RNvXs_NvNtNtCs54IFX23eV0j_14loopautoma_lib5tests5testss_38e2e_happy_path_emits_expected_sequenceNtB4_4AutoNtNtBa_6domain10Automation3key
FN:624,_RNvXs_NvNtNtCs54IFX23eV0j_14loopautoma_lib5tests5testss_38e2e_happy_path_emits_expected_sequenceNtB4_4AutoNtNtBa_6domain10Automation5click
FN:627,_RNvXs_NvNtNtCs54IFX23eV0j_14loopautoma_lib5tests5testss_38e2e_happy_path_emits_expected_sequenceNtB4_4AutoNtNtBa_6domain10Automation9type_text
FN:837,_RNvXs_NvNtNtCs54IFX23eV0j_14loopautoma_lib5tests5testss_38region_condition_resets_on_hash_changeNtB4_4Cap2NtNtBa_6domain13ScreenCapture11hash_region
FN:840,_RNvXs_NvNtNtCs54IFX23eV0j_14loopautoma_lib5tests5testss_38region_condition_resets_on_hash_changeNtB4_4Cap2NtNtBa_6domain13ScreenCapture14capture_region
FN:843,_RNvXs_NvNtNtCs54IFX23eV0j_14loopautoma_lib5tests5testss_38region_condition_resets_on_hash_changeNtB4_4Cap2NtNtBa_6domain13ScreenCapture8displays
FN:436,_RNvXs_NvNtNtCs54IFX23eV0j_14loopautoma_lib5tests5testss_43guardrail_trips_on_max_activations_per_hourNtB4_1ANtNtBa_6domain10Automation11move_cursor
FN:445,_RNvXs_NvNtNtCs54IFX23eV0j_14loopautoma_lib5tests5testss_43guardrail_trips_on_max_activations_per_hourNtB4_1ANtNtBa_6domain10Automation3key
FN:439,_RNvXs_NvNtNtCs54IFX23eV0j_14loopautoma_lib5tests5testss_43guardrail_trips_on_max_activations_per_hourNtB4_1ANtNtBa_6domain10Automation5click
FN:442,_RNvXs_NvNtNtCs54IFX23eV0j_14loopautoma_lib5tests5testss_43guardrail_trips_on_max_activations_per_hourNtB4_1ANtNtBa_6domain10Automation9type_text
FN:513,_RNvXs_NvNtNtCs54IFX23eV0j_14loopautoma_lib5tests5testss_43max_activations_window_resets_after_an_hourNtB4_1ANtNtBa_6domain10Automation11move_cursor
FN:522,_RNvXs_NvNtNtCs54IFX23eV0j_14loopautoma_lib5tests5testss_43max_activations_window_resets_after_an_hourNtB4_1ANtNtBa_6domain10Automation3key
FN:516,_RNvXs_NvNtNtCs54IFX23eV0j_14loopautoma_lib5tests5testss_43max_activations_window_resets_after_an_hourNtB4_1ANtNtBa_6domain10Automation5click
FN:519,_RNvXs_NvNtNtCs54IFX23eV0j_14loopautoma_lib5tests5testss_43max_activations_window_resets_after_an_hourNtB4_1ANtNtBa_6domain10Automation9type_text
FN:730,_RNvXs_NvNtNtCs54IFX23eV0j_14loopautoma_lib5tests5testss_44soak_run_time_dilated_with_guardrails_stableNtB4_1ANtNtBa_6domain10Automation11move_cursor
FN:739,_RNvXs_NvNtNtCs54IFX23eV0j_14loopautoma_lib5tests5testss_44soak_run_time_dilated_with_guardrails_stableNtB4_1ANtNtBa_6domain10Automation3key
FN:733,_RNvXs_NvNtNtCs54IFX23eV0j_14loopautoma_lib5tests5testss_44soak_run_time_dilated_with_guardrails_stableNtB4_1ANtNtBa_6domain10Automation5click
FN:736,_RNvXs_NvNtNtCs54IFX23eV0j_14loopautoma_lib5tests5testss_44soak_run_time_dilated_with_guardrails_stableNtB4_1ANtNtBa_6domain10Automation9type_text
FN:269,_RNvXs_NvNtNtCs54IFX23eV0j_14loopautoma_lib5tests5testss_57profile_driven_monitor_emits_events_and_respects_cooldownNtB4_4AutoNtNtBa_6domain10Automation11move_cursor
FN:278,_RNvXs_NvNtNtCs54IFX23eV0j_14loopautoma_lib5tests5testss_57profile_driven_monitor_emits_events_and_respects_cooldownNtB4_4AutoNtNtBa_6domain10Automation3key
FN:272,_RNvXs_NvNtNtCs54IFX23eV0j_14loopautoma_lib5tests5testss_57profile_driven_monitor_emits_events_and_respects_cooldownNtB4_4AutoNtNtBa_6domain10Automation5click
FN:275,_RNvXs_NvNtNtCs54IFX23eV0j_14loopautoma_lib5tests5testss_57profile_driven_monitor_emits_events_and_respects_cooldownNtB4_4AutoNtNtBa_6domain10Automation9type_text
FNDA:1,_RNCNvNtNtCs54IFX23eV0j_14loopautoma_lib5tests5testss_30guardrail_trips_on_max_runtime0B7_
FNDA:8,_RNCNvNtNtCs54IFX23eV0j_14loopautoma_lib5tests5testss_32action_sequence_runs_all_actions0B7_
FNDA:8,_RNCNvNtNtCs54IFX23eV0j_14loopautoma_lib5tests5testss_32action_sequence_runs_all_actionss_0B7_
FNDA:1,_RNCNvNtNtCs54IFX23eV0j_14loopautoma_lib5tests5testss_34soak_runner_reports_guardrail_trip0B7_
FNDA:4,_RNCNvNtNtCs54IFX23eV0j_14loopautoma_lib5tests5testss_38action_sequence_stops_on_first_failure0B7_
FNDA:1,_RNCNvNtNtCs54IFX23eV0j_14loopautoma_lib5tests5testss_38action_sequence_stops_on_first_failures_0B7_
FNDA:1,_RNCNvNtNtCs54IFX23eV0j_14loopautoma_lib5tests5testss_38e2e_happy_path_emits_expected_sequence0B7_
FNDA:2,_RNCNvNtNtCs54IFX23eV0j_14loopautoma_lib5tests5testss_38e2e_happy_path_emits_expected_sequences0_0B7_
FNDA:6,_RNCNvNtNtCs54IFX23eV0j_14loopautoma_lib5tests5testss_38e2e_happy_path_emits_expected_sequences1_0B7_
FNDA:1,_RNCNvNtNtCs54IFX23eV0j_14loopautoma_lib5tests5testss_38e2e_happy_path_emits_expected_sequences2_0B7_
FNDA:2,_RNCNvNtNtCs54IFX23eV0j_14loopautoma_lib5tests5testss_38e2e_happy_path_emits_expected_sequences_0B7_
FNDA:1,_RNCNvNtNtCs54IFX23eV0j_14loopautoma_lib5tests5testss_43guardrail_trips_on_max_activations_per_hour0B7_
FNDA:1,_RNCNvNtNtCs54IFX23eV0j_14loopautoma_lib5tests5testss_43max_activations_window_resets_after_an_hour0B7_
FNDA:1,_RNCNvNtNtCs54IFX23eV0j_14loopautoma_lib5tests5testss_44soak_run_time_dilated_with_guardrails_stable0B7_
FNDA:1,_RNCNvNtNtCs54IFX23eV0j_14loopautoma_lib5tests5testss_44soak_run_time_dilated_with_guardrails_stables_0B7_
FNDA:1,_RNCNvNtNtCs54IFX23eV0j_14loopautoma_lib5tests5testss_47panic_stop_helper_emits_watchdog_and_stop_state0B7_
FNDA:0,_RNCNvNtNtCs54IFX23eV0j_14loopautoma_lib5tests5testss_47panic_stop_helper_emits_watchdog_and_stop_states0_0B7_
FNDA:1,_RNCNvNtNtCs54IFX23eV0j_14loopautoma_lib5tests5testss_47panic_stop_helper_emits_watchdog_and_stop_states_0B7_
FNDA:2,_RNCNvNtNtCs54IFX23eV0j_14loopautoma_lib5tests5testss_57profile_driven_monitor_emits_events_and_respects_cooldown0B7_
FNDA:6,_RNCNvNtNtCs54IFX23eV0j_14loopautoma_lib5tests5testss_57profile_driven_monitor_emits_events_and_respects_cooldowns0_0B7_
FNDA:7,_RNCNvNtNtCs54IFX23eV0j_14loopautoma_lib5tests5testss_57profile_driven_monitor_emits_events_and_respects_cooldowns1_0B7_
FNDA:3,_RNCNvNtNtCs54IFX23eV0j_14loopautoma_lib5tests5testss_57profile_driven_monitor_emits_events_and_respects_cooldowns_0B7_
FNDA:1,_RNvNtNtNtCs54IFX23eV0j_14loopautoma_lib5tests5tests11ui_commandss_20normalize_rect_basic
FNDA:1,_RNvNtNtNtCs54IFX23eV0j_14loopautoma_lib5tests5tests11ui_commandss_27normalize_rect_minimum_size
FNDA:1,_RNvNtNtNtCs54IFX23eV0j_14loopautoma_lib5tests5tests11ui_commandss_33normalize_rect_zero_size_rejected
FNDA:1,_RNvNtNtNtCs54IFX23eV0j_14loopautoma_lib5tests5tests11ui_commandss_35normalize_rect_reversed_coordinates
FNDA:1,_RNvNtNtNtCs54IFX23eV0j_14loopautoma_lib5tests5tests11ui_commandss_39normalize_rect_all_negative_coordinates
FNDA:1,_RNvNtNtNtCs54IFX23eV0j_14loopautoma_lib5tests5tests11ui_commandss_43normalize_rect_negative_coordinates_clamped
FNDA:4,_RNvMs_NtNtCs54IFX23eV0j_14loopautoma_lib5tests5testsNtB4_8FakeAuto3new
FNDA:0,_RNvNtNtCs54IFX23eV0j_14loopautoma_lib5tests5tests13displays_stub
FNDA:0,_RNvNtNtCs54IFX23eV0j_14loopautoma_lib5tests5tests19capture_region_stub
FNDA:1,_RNvNtNtCs54IFX23eV0j_14loopautoma_lib5tests5testss_30guardrail_trips_on_max_runtime
FNDA:1,_RNvNtNtCs54IFX23eV0j_14loopautoma_lib5tests5testss_32action_sequence_runs_all_actions
FNDA:1,_RNvNtNtCs54IFX23eV0j_14loopautoma_lib5tests5testss_32fakes_provide_deterministic_data
FNDA:1,_RNvNtNtCs54IFX23eV0j_14loopautoma_lib5tests5testss_34interval_trigger_fires_on_interval
FNDA:1,_RNvNtNtCs54IFX23eV0j_14loopautoma_lib5tests5testss_34soak_runner_reports_guardrail_trip
FNDA:1,_RNvNtNtCs54IFX23eV0j_14loopautoma_lib5tests5testss_38action_sequence_stops_on_first_failure
FNDA:1,_RNvNtNtCs54IFX23eV0j_14loopautoma_lib5tests5testss_38e2e_happy_path_emits_expected_sequence
FNDA:1,_RNvNtNtCs54IFX23eV0j_14loopautoma_lib5tests5testss_38region_condition_handles_empty_regions
FNDA:1,_RNvNtNtCs54IFX23eV0j_14loopautoma_lib5tests5testss_38region_condition_resets_on_hash_change
FNDA:1,_RNvNtNtCs54IFX23eV0j_14loopautoma_lib5tests5testss_42monitor_activates_once_when_condition_true
FNDA:1,_RNvNtNtCs54IFX23eV0j_14loopautoma_lib5tests5testss_43guardrail_trips_on_max_activations_per_hour
FNDA:1,_RNvNtNtCs54IFX23eV0j_14loopautoma_lib5tests5testss_43max_activations_window_resets_after_an_hour
FNDA:1,_RNvNtNtCs54IFX23eV0j_14loopautoma_lib5tests5testss_44soak_run_time_dilated_with_guardrails_stable
FNDA:1,_RNvNtNtCs54IFX23eV0j_14loopautoma_lib5tests5testss_46region_condition_reports_stable_after_duration
FNDA:1,_RNvNtNtCs54IFX23eV0j_14loopautoma_lib5tests5testss_47panic_stop_helper_emits_watchdog_and_stop_state
FNDA:1,_RNvNtNtCs54IFX23eV0j_14loopautoma_lib5tests5testss_48monitor_cooldown_prevents_immediate_reactivation
FNDA:1,_RNvNtNtCs54IFX23eV0j_14loopautoma_lib5tests5testss_57profile_driven_monitor_emits_events_and_respects_cooldown
FNDA:6,_RNvXNtNtCs54IFX23eV0j_14loopautoma_lib5tests5testsNtB2_7FakeCapNtNtB6_6domain13ScreenCapture11hash_region
FNDA:0,_RNvXNtNtCs54IFX23eV0j_14loopautoma_lib5tests5testsNtB2_7FakeCapNtNtB6_6domain13ScreenCapture14capture_region
FNDA:0,_RNvXNtNtCs54IFX23eV0j_14loopautoma_lib5tests5testsNtB2_7FakeCapNtNtB6_6domain13ScreenCapture8displays
FNDA:1,_RNvXNvNtNtCs54IFX23eV0j_14loopautoma_lib5tests5testss_30guardrail_trips_on_max_runtimeNtB2_1CNtNtB8_6domain13ScreenCapture11hash_region
FNDA:0,_RNvXNvNtNtCs54IFX23eV0j_14loopautoma_lib5tests5testss_30guardrail_trips_on_max_runtimeNtB2_1CNtNtB8_6domain13ScreenCapture14capture_region
FNDA:0,_RNvXNvNtNtCs54IFX23eV0j_14loopautoma_lib5tests5testss_30guardrail_trips_on_max_runtimeNtB2_1CNtNtB8_6domain13ScreenCapture8displays
FNDA:3,_RNvXNvNtNtCs54IFX23eV0j_14loopautoma_lib5tests5testss_38action_sequence_stops_on_first_failureNtB2_10FailActionNtNtB8_6domain6Action4name
FNDA:1,_RNvXNvNtNtCs54IFX23eV0j_14loopautoma_lib5tests5testss_38action_sequence_stops_on_first_failureNtB2_10FailActionNtNtB8_6domain6Action7execute
FNDA:2,_RNvXNvNtNtCs54IFX23eV0j_14loopautoma_lib5tests5testss_38e2e_happy_path_emits_expected_sequenceNtB2_3CapNtNtB8_6domain13ScreenCapture11hash_region
FNDA:0,_RNvXNvNtNtCs54IFX23eV0j_14loopautoma_lib5tests5testss_38e2e_happy_path_emits_expected_sequenceNtB2_3CapNtNtB8_6domain13ScreenCapture14capture_region
FNDA:0,_RNvXNvNtNtCs54IFX23eV0j_14loopautoma_lib5tests5testss_38e2e_happy_path_emits_expected_sequenceNtB2_3CapNtNtB8_6domain13ScreenCapture8displays
FNDA:2,_RNvXNvNtNtCs54IFX23eV0j_14loopautoma_lib5tests5testss_38region_condition_resets_on_hash_changeNtB2_4Cap1NtNtB8_6domain13ScreenCapture11hash_region
FNDA:0,_RNvXNvNtNtCs54IFX23eV0j_14loopautoma_lib5tests5testss_38region_condition_resets_on_hash_changeNtB2_4Cap1NtNtB8_6domain13ScreenCapture14capture_region
FNDA:0,_RNvXNvNtNtCs54IFX23eV0j_14loopautoma_lib5tests5testss_38region_condition_resets_on_hash_changeNtB2_4Cap1NtNtB8_6domain13ScreenCapture8displays
FNDA:3,_RNvXNvNtNtCs54IFX23eV0j_14loopautoma_lib5tests5testss_43guardrail_trips_on_max_activations_per_hourNtB2_1CNtNtB8_6domain13ScreenCapture11hash_region
FNDA:0,_RNvXNvNtNtCs54IFX23eV0j_14loopautoma_lib5tests5testss_43guardrail_trips_on_max_activations_per_hourNtB2_1CNtNtB8_6domain13ScreenCapture14capture_region
FNDA:0,_RNvXNvNtNtCs54IFX23eV0j_14loopautoma_lib5tests5testss_43guardrail_trips_on_max_activations_per_hourNtB2_1CNtNtB8_6domain13ScreenCapture8displays
FNDA:4,_RNvXNvNtNtCs54IFX23eV0j_14loopautoma_lib5tests5testss_43max_activations_window_resets_after_an_hourNtB2_1CNtNtB8_6domain13ScreenCapture11hash_region
FNDA:0,_RNvXNvNtNtCs54IFX23eV0j_14loopautoma_lib5tests5testss_43max_activations_window_resets_after_an_hourNtB2_1CNtNtB8_6domain13ScreenCapture14capture_region
FNDA:0,_RNvXNvNtNtCs54IFX23eV0j_14loopautoma_lib5tests5testss_43max_activations_window_resets_after_an_hourNtB2_1CNtNtB8_6domain13ScreenCapture8displays
FNDA:5,_RNvXNvNtNtCs54IFX23eV0j_14loopautoma_lib5tests5testss_44soak_run_time_dilated_with_guardrails_stableNtB2_1CNtNtB8_6domain13ScreenCapture11hash_region
FNDA:0,_RNvXNvNtNtCs54IFX23eV0j_14loopautoma_lib5tests5testss_44soak_run_time_dilated_with_guardrails_stableNtB2_1CNtNtB8_6domain13ScreenCapture14capture_region
FNDA:0,_RNvXNvNtNtCs54IFX23eV0j_14loopautoma_lib5tests5testss_44soak_run_time_dilated_with_guardrails_stableNtB2_1CNtNtB8_6domain13ScreenCapture8displays
FNDA:3,_RNvXNvNtNtCs54IFX23eV0j_14loopautoma_lib5tests5testss_48monitor_cooldown_prevents_immediate_reactivationNtB2_1CNtNtB8_6domain13ScreenCapture11hash_region
FNDA:0,_RNvXNvNtNtCs54IFX23eV0j_14loopautoma_lib5tests5testss_48monitor_cooldown_prevents_immediate_reactivationNtB2_1CNtNtB8_6domain13ScreenCapture14capture_region
FNDA:0,_RNvXNvNtNtCs54IFX23eV0j_14loopautoma_lib5tests5testss_48monitor_cooldown_prevents_immediate_reactivationNtB2_1CNtNtB8_6domain13ScreenCapture8displays
FNDA:4,_RNvXNvNtNtCs54IFX23eV0j_14loopautoma_lib5tests5testss_57profile_driven_monitor_emits_events_and_respects_cooldownNtB2_3CapNtNtB8_6domain13ScreenCapture11hash_region
FNDA:0,_RNvXNvNtNtCs54IFX23eV0j_14loopautoma_lib5tests5testss_57profile_driven_monitor_emits_events_and_respects_cooldownNtB2_3CapNtNtB8_6domain13ScreenCapture14capture_region
FNDA:0,_RNvXNvNtNtCs54IFX23eV0j_14loopautoma_lib5tests5testss_57profile_driven_monitor_emits_events_and_respects_cooldownNtB2_3CapNtNtB8_6domain13ScreenCapture8displays
FNDA:1,_RNvXs0_NtNtCs54IFX23eV0j_14loopautoma_lib5tests5testsNtB5_8FakeAutoNtNtB9_6domain10Automation11move_cursor
FNDA:2,_RNvXs0_NtNtCs54IFX23eV0j_14loopautoma_lib5tests5testsNtB5_8FakeAutoNtNtB9_6domain10Automation3key
FNDA:1,_RNvXs0_NtNtCs54IFX23eV0j_14loopautoma_lib5tests5testsNtB5_8FakeAutoNtNtB9_6domain10Automation5click
FNDA:5,_RNvXs0_NtNtCs54IFX23eV0j_14loopautoma_lib5tests5testsNtB5_8FakeAutoNtNtB9_6domain10Automation9type_text
FNDA:20,_RNvXs1_NtNtCs54IFX23eV0j_14loopautoma_lib5tests5testsNtB5_13AlwaysTriggerNtNtB9_6domain7Trigger11should_fire
FNDA:0,_RNvXs_NvNtNtCs54IFX23eV0j_14loopautoma_lib5tests5testss_30guardrail_trips_on_max_runtimeNtB4_1ANtNtBa_6domain10Automation11move_cursor
FNDA:0,_RNvXs_NvNtNtCs54IFX23eV0j_14loopautoma_lib5tests5testss_30guardrail_trips_on_max_runtimeNtB4_1ANtNtBa_6domain10Automation3key
FNDA:0,_RNvXs_NvNtNtCs54IFX23eV0j_14loopautoma_lib5tests5testss_30guardrail_trips_on_max_runtimeNtB4_1ANtNtBa_6domain10Automation5click
FNDA:0,_RNvXs_NvNtNtCs54IFX23eV0j_14loopautoma_lib5tests5testss_30guardrail_trips_on_max_runtimeNtB4_1ANtNtBa_6domain10Automation9type_text
FNDA:0,_RNvXs_NvNtNtCs54IFX23eV0j_14loopautoma_lib5tests5testss_38e2e_happy_path_emits_expected_sequenceNtB4_4AutoNtNtBa_6domain10Automation11move_cursor
FNDA:1,_RNvXs_NvNtNtCs54IFX23eV0j_14loopautoma_lib5tests5testss_38e2e_happy_path_emits_expected_sequenceNtB4_4AutoNtNtBa_6domain10Automation3key
FNDA:0,_RNvXs_NvNtNtCs54IFX23eV0j_14loopautoma_lib5tests5testss_38e2e_happy_path_emits_expected_sequenceNtB4_4AutoNtNtBa_6domain10Automation5click
FNDA:1,_RNvXs_NvNtNtCs54IFX23eV0j_14loopautoma_lib5tests5testss_38e2e_happy_path_emits_expected_sequenceNtB4_4AutoNtNtBa_6domain10Automation9type_text
FNDA:3,_RNvXs_NvNtNtCs54IFX23eV0j_14loopautoma_lib5tests5testss_38region_condition_resets_on_hash_changeNtB4_4Cap2NtNtBa_6domain13ScreenCapture11hash_region
FNDA:0,_RNvXs_NvNtNtCs54IFX23eV0j_14loopautoma_lib5tests5testss_38region_condition_resets_on_hash_changeNtB4_4Cap2NtNtBa_6domain13ScreenCapture14capture_region
FNDA:0,_RNvXs_NvNtNtCs54IFX23eV0j_14loopautoma_lib5tests5testss_38region_condition_resets_on_hash_changeNtB4_4Cap2NtNtBa_6domain13ScreenCapture8displays
FNDA:0,_RNvXs_NvNtNtCs54IFX23eV0j_14loopautoma_lib5tests5testss_43guardrail_trips_on_max_activations_per_hourNtB4_1ANtNtBa_6domain10Automation11move_cursor
FNDA:0,_RNvXs_NvNtNtCs54IFX23eV0j_14loopautoma_lib5tests5testss_43guardrail_trips_on_max_activations_per_hourNtB4_1ANtNtBa_6domain10Automation3key
FNDA:0,_RNvXs_NvNtNtCs54IFX23eV0j_14loopautoma_lib5tests5testss_43guardrail_trips_on_max_activations_per_hourNtB4_1ANtNtBa_6domain10Automation5click
FNDA:1,_RNvXs_NvNtNtCs54IFX23eV0j_14loopautoma_lib5tests5testss_43guardrail_trips_on_max_activations_per_hourNtB4_1ANtNtBa_6domain10Automation9type_text
FNDA:0,_RNvXs_NvNtNtCs54IFX23eV0j_14loopautoma_lib5tests5testss_43max_activations_window_resets_after_an_hourNtB4_1ANtNtBa_6domain10Automation11move_cursor
FNDA:0,_RNvXs_NvNtNtCs54IFX23eV0j_14loopautoma_lib5tests5testss_43max_activations_window_resets_after_an_hourNtB4_1ANtNtBa_6domain10Automation3key
FNDA:0,_RNvXs_NvNtNtCs54IFX23eV0j_14loopautoma_lib5tests5testss_43max_activations_window_resets_after_an_hourNtB4_1ANtNtBa_6domain10Automation5click
FNDA:2,_RNvXs_NvNtNtCs54IFX23eV0j_14loopautoma_lib5tests5testss_43max_activations_window_resets_after_an_hourNtB4_1ANtNtBa_6domain10Automation9type_text
FNDA:0,_RNvXs_NvNtNtCs54IFX23eV0j_14loopautoma_lib5tests5testss_44soak_run_time_dilated_with_guardrails_stableNtB4_1ANtNtBa_6domain10Automation11move_cursor
FNDA:0,_RNvXs_NvNtNtCs54IFX23eV0j_14loopautoma_lib5tests5testss_44soak_run_time_dilated_with_guardrails_stableNtB4_1ANtNtBa_6domain10Automation3key
FNDA:0,_RNvXs_NvNtNtCs54IFX23eV0j_14loopautoma_lib5tests5testss_44soak_run_time_dilated_with_guardrails_stableNtB4_1ANtNtBa_6domain10Automation5click
FNDA:4,_RNvXs_NvNtNtCs54IFX23eV0j_14loopautoma_lib5tests5testss_44soak_run_time_dilated_with_guardrails_stableNtB4_1ANtNtBa_6domain10Automation9type_text
FNDA:0,_RNvXs_NvNtNtCs54IFX23eV0j_14loopautoma_lib5tests5testss_57profile_driven_monitor_emits_events_and_respects_cooldownNtB4_4AutoNtNtBa_6domain10Automation11move_cursor
FNDA:3,_RNvXs_NvNtNtCs54IFX23eV0j_14loopautoma_lib5tests5testss_57profile_driven_monitor_emits_events_and_respects_cooldownNtB4_4AutoNtNtBa_6domain10Automation3key
FNDA:0,_RNvXs_NvNtNtCs54IFX23eV0j_14loopautoma_lib5tests5testss_57profile_driven_monitor_emits_events_and_respects_cooldownNtB4_4AutoNtNtBa_6domain10Automation5click
FNDA:3,_RNvXs_NvNtNtCs54IFX23eV0j_14loopautoma_lib5tests5testss_57profile_driven_monitor_emits_events_and_respects_cooldownNtB4_4AutoNtNtBa_6domain10Automation9type_text
FNF:109
FNH:69
DA:17,0
DA:18,0
DA:19,0
DA:20,0
DA:21,0
DA:22,0
DA:23,0
DA:24,0
DA:25,0
DA:31,6
DA:32,6
DA:33,6
DA:34,0
DA:35,0
DA:36,0
DA:37,0
DA:38,0
DA:39,0
DA:46,4
DA:47,4
DA:48,4
DA:49,4
DA:50,4
DA:53,1
DA:54,1
DA:55,1
DA:56,1
DA:57,1
DA:58,1
DA:59,1
DA:60,1
DA:61,1
DA:62,1
DA:63,1
DA:64,5
DA:65,5
DA:66,5
DA:67,5
DA:68,2
DA:69,2
DA:70,2
DA:71,2
DA:75,1
DA:76,1
DA:77,1
DA:78,1
DA:79,1
DA:80,1
DA:81,1
DA:84,1
DA:85,1
DA:86,1
DA:87,1
DA:88,1
DA:89,1
DA:90,1
DA:91,1
DA:92,1
DA:93,1
DA:94,1
DA:95,1
DA:96,1
DA:97,1
DA:99,1
DA:101,1
DA:103,1
DA:104,1
DA:107,1
DA:108,1
DA:109,1
DA:110,1
DA:111,1
DA:112,1
DA:113,1
DA:114,1
DA:115,1
DA:116,1
DA:117,1
DA:118,1
DA:119,1
DA:121,1
DA:122,1
DA:123,1
DA:124,1
DA:125,1
DA:127,1
DA:130,1
DA:131,1
DA:132,1
DA:133,8
DA:134,1
DA:137,1
DA:138,1
DA:139,1
DA:140,1
DA:141,8
DA:144,1
DA:147,1
DA:151,20
DA:152,20
DA:153,20
DA:157,1
DA:158,1
DA:159,1
DA:160,1
DA:161,1
DA:162,1
DA:163,1
DA:164,1
DA:165,1
DA:166,1
DA:167,1
DA:169,1
DA:170,1
DA:171,1
DA:172,1
DA:173,1
DA:175,1
DA:176,1
DA:177,1
DA:178,1
DA:179,1
DA:180,1
DA:181,1
DA:182,1
DA:183,1
DA:184,1
DA:185,1
DA:186,1
DA:187,1
DA:188,1
DA:189,1
DA:191,1
DA:192,1
DA:193,1
DA:194,1
DA:195,1
DA:196,1
DA:197,1
DA:200,1
DA:201,1
DA:202,1
DA:203,1
DA:204,1
DA:205,1
DA:207,1
DA:208,1
DA:209,1
DA:210,1
DA:213,1
DA:215,1
DA:216,1
DA:217,1
DA:218,1
DA:219,1
DA:220,1
DA:221,1
DA:222,1
DA:223,1
DA:224,1
DA:225,1
DA:226,1
DA:227,1
DA:228,1
DA:229,1
DA:230,1
DA:231,1
DA:232,1
DA:233,1
DA:234,1
DA:235,1
DA:236,1
DA:237,1
DA:238,1
DA:239,1
DA:240,1
DA:241,1
DA:242,1
DA:243,1
DA:244,1
DA:245,1
DA:246,1
DA:247,1
DA:248,1
DA:249,1
DA:250,1
DA:252,1
DA:257,4
DA:258,4
DA:259,4
DA:260,0
DA:261,0
DA:262,0
DA:263,0
DA:264,0
DA:265,0
DA:269,0
DA:270,0
DA:271,0
DA:272,0
DA:273,0
DA:274,0
DA:275,3
DA:276,3
DA:277,3
DA:278,3
DA:279,3
DA:280,3
DA:282,1
DA:283,1
DA:285,1
DA:286,1
DA:287,1
DA:288,1
DA:291,1
DA:293,1
DA:294,1
DA:295,1
DA:296,1
DA:297,1
DA:298,1
DA:299,1
DA:301,1
DA:302,1
DA:303,1
DA:304,1
DA:305,1
DA:306,1
DA:309,1
DA:310,1
DA:311,1
DA:312,1
DA:313,1
DA:314,1
DA:317,1
DA:318,1
DA:319,2
DA:320,1
DA:321,1
DA:322,3
DA:323,1
DA:324,1
DA:325,6
DA:326,1
DA:327,7
DA:330,1
DA:333,1
DA:336,1
DA:337,1
DA:338,1
DA:339,1
DA:340,1
DA:341,1
DA:342,1
DA:343,1
DA:344,1
DA:346,1
DA:347,1
DA:348,1
DA:349,1
DA:350,1
DA:351,1
DA:352,1
DA:353,1
DA:354,1
DA:355,1
DA:358,1
DA:359,1
DA:360,1
DA:361,0
DA:362,0
DA:363,0
DA:364,0
DA:365,0
DA:366,0
DA:370,0
DA:371,0
DA:372,0
DA:373,0
DA:374,0
DA:375,0
DA:376,0
DA:377,0
DA:378,0
DA:379,0
DA:380,0
DA:381,0
DA:383,1
DA:384,1
DA:385,1
DA:386,1
DA:387,1
DA:388,1
DA:390,1
DA:391,1
DA:392,1
DA:393,3
DA:394,4
DA:395,1
DA:398,1
DA:400,1
DA:401,1
DA:402,1
DA:403,1
DA:404,1
DA:406,1
DA:407,1
DA:408,1
DA:409,1
DA:410,1
DA:412,1
DA:413,1
DA:414,1
DA:415,1
DA:416,1
DA:417,1
DA:418,1
DA:419,1
DA:420,1
DA:421,1
DA:424,3
DA:425,3
DA:426,3
DA:427,0
DA:428,0
DA:429,0
DA:430,0
DA:431,0
DA:432,0
DA:436,0
DA:437,0
DA:438,0
DA:439,0
DA:440,0
DA:441,0
DA:442,1
DA:443,1
DA:444,1
DA:445,0
DA:446,0
DA:447,0
DA:449,1
DA:450,1
DA:451,1
DA:452,1
DA:453,1
DA:455,1
DA:457,1
DA:458,1
DA:459,1
DA:460,1
DA:461,1
DA:462,1
DA:465,1
DA:466,1
DA:467,1
DA:468,1
DA:469,1
DA:470,9
DA:471,10
DA:472,1
DA:475,1
DA:477,1
DA:478,1
DA:479,1
DA:480,1
DA:481,1
DA:483,1
DA:484,1
DA:485,1
DA:486,1
DA:487,1
DA:489,1
DA:490,1
DA:491,1
DA:492,1
DA:493,1
DA:494,1
DA:495,1
DA:496,1
DA:497,1
DA:498,1
DA:501,4
DA:502,4
DA:503,4
DA:504,0
DA:505,0
DA:506,0
DA:507,0
DA:508,0
DA:509,0
DA:513,0
DA:514,0
DA:515,0
DA:516,0
DA:517,0
DA:518,0
DA:519,2
DA:520,2
DA:521,2
DA:522,0
DA:523,0
DA:524,0
DA:526,1
DA:527,1
DA:528,1
DA:529,1
DA:530,1
DA:532,1
DA:533,1
DA:534,1
DA:535,1
DA:536,1
DA:537,1
DA:538,1
DA:541,1
DA:542,1
DA:543,1
DA:544,1
DA:545,1
DA:546,1
DA:548,1
DA:549,1
DA:550,1
DA:551,1
DA:552,1
DA:553,1
DA:554,1
DA:555,1
DA:557,1
DA:558,1
DA:559,0
DA:561,1
DA:564,1
DA:567,1
DA:568,1
DA:569,1
DA:570,1
DA:571,1
DA:572,1
DA:573,1
DA:574,1
DA:575,1
DA:576,1
DA:577,1
DA:578,1
DA:579,1
DA:580,1
DA:581,1
DA:582,1
DA:583,1
DA:584,1
DA:585,1
DA:586,1
DA:587,1
DA:588,1
DA:589,1
DA:590,1
DA:591,1
DA:592,1
DA:593,1
DA:594,1
DA:595,1
DA:596,1
DA:597,1
DA:598,1
DA:599,1
DA:600,1
DA:601,1
DA:602,1
DA:604,1
DA:609,2
DA:610,2
DA:611,2
DA:612,0
DA:613,0
DA:614,0
DA:615,0
DA:616,0
DA:617,0
DA:621,0
DA:622,0
DA:623,0
DA:624,0
DA:625,0
DA:626,0
DA:627,1
DA:628,1
DA:629,1
DA:630,1
DA:631,1
DA:632,1
DA:634,1
DA:635,1
DA:637,1
DA:638,1
DA:639,1
DA:641,1
DA:642,1
DA:643,1
DA:644,1
DA:645,1
DA:646,1
DA:647,1
DA:651,1
DA:652,1
DA:653,1
DA:654,2
DA:655,1
DA:656,1
DA:657,1
DA:658,1
DA:659,2
DA:661,1
DA:662,1
DA:663,1
DA:664,6
DA:665,1
DA:666,1
DA:667,1
DA:668,1
DA:669,1
DA:671,1
DA:673,1
DA:674,1
DA:675,0
DA:677,1
DA:678,1
DA:679,0
DA:681,1
DA:682,1
DA:683,0
DA:685,1
DA:686,1
DA:687,0
DA:689,1
DA:692,1
DA:694,1
DA:695,1
DA:696,1
DA:697,1
DA:698,1
DA:699,1
DA:700,1
DA:701,1
DA:702,1
DA:703,1
DA:704,1
DA:706,1
DA:707,1
DA:708,1
DA:709,1
DA:710,1
DA:711,1
DA:712,1
DA:713,1
DA:714,1
DA:715,1
DA:718,5
DA:719,5
DA:720,5
DA:721,0
DA:722,0
DA:723,0
DA:724,0
DA:725,0
DA:726,0
DA:730,0
DA:731,0
DA:732,0
DA:733,0
DA:734,0
DA:735,0
DA:736,4
DA:737,4
DA:738,4
DA:739,0
DA:740,0
DA:741,0
DA:743,1
DA:744,1
DA:745,1
DA:746,1
DA:747,1
DA:749,101
DA:750,100
DA:751,100
DA:752,100
DA:753,100
DA:754,100
DA:755,100
DA:756,100
DA:757,100
DA:759,1
DA:761,1
DA:762,1
DA:763,1
DA:764,0
DA:766,1
DA:769,1
DA:770,1
DA:771,1
DA:772,1
DA:773,1
DA:774,1
DA:775,1
DA:776,1
DA:777,1
DA:778,1
DA:780,1
DA:781,1
DA:782,1
DA:783,1
DA:784,1
DA:785,1
DA:787,1
DA:788,1
DA:789,1
DA:790,1
DA:791,1
DA:792,1
DA:793,1
DA:796,1
DA:797,1
DA:798,1
DA:799,1
DA:801,1
DA:802,1
DA:805,1
DA:806,1
DA:807,1
DA:808,1
DA:809,1
DA:810,1
DA:811,1
DA:812,1
DA:813,1
DA:814,1
DA:815,1
DA:816,1
DA:820,2
DA:821,2
DA:822,2
DA:823,0
DA:824,0
DA:825,0
DA:826,0
DA:827,0
DA:828,0
DA:830,1
DA:831,1
DA:832,1
DA:833,1
DA:837,3
DA:838,3
DA:839,3
DA:840,0
DA:841,0
DA:842,0
DA:843,0
DA:844,0
DA:845,0
DA:847,1
DA:849,1
DA:851,1
DA:852,1
DA:853,1
DA:856,1
DA:857,1
DA:860,3
DA:861,3
DA:862,3
DA:863,1
DA:864,1
DA:865,1
DA:867,1
DA:868,1
DA:869,1
DA:870,1
DA:871,1
DA:872,1
DA:873,1
DA:874,1
DA:876,1
DA:877,1
DA:878,1
DA:879,1
DA:881,1
DA:883,1
DA:884,1
DA:885,4
DA:887,1
DA:888,1
DA:891,1
DA:892,1
DA:893,1
DA:894,1
DA:895,1
DA:896,1
DA:898,1
DA:899,1
DA:900,1
DA:901,1
DA:902,1
DA:904,1
DA:905,1
DA:906,1
DA:907,1
DA:908,1
DA:909,1
DA:910,1
DA:911,1
DA:912,1
DA:913,1
DA:916,3
DA:917,3
DA:918,3
DA:919,0
DA:920,0
DA:921,0
DA:922,0
DA:923,0
DA:924,0
DA:926,1
DA:927,1
DA:928,1
DA:929,1
DA:930,1
DA:932,1
DA:934,1
DA:935,1
DA:936,1
DA:937,1
DA:938,1
DA:939,1
DA:941,1
DA:943,1
DA:944,1
DA:945,1
DA:946,1
DA:947,1
DA:948,1
DA:950,1
DA:952,1
DA:953,1
DA:954,1
DA:957,1
DA:959,1
DA:960,1
DA:961,1
DA:962,1
DA:963,1
DA:964,1
DA:965,1
DA:966,1
DA:967,1
DA:968,1
DA:969,1
DA:970,1
DA:971,1
DA:972,1
DA:973,1
DA:974,1
DA:975,1
DA:976,1
DA:977,1
DA:978,1
DA:979,1
DA:980,1
DA:981,1
DA:982,1
DA:983,1
DA:984,1
DA:987,1
DA:988,1
DA:989,1
DA:990,1
DA:991,1
DA:992,1
DA:993,1
DA:994,1
DA:995,1
DA:996,1
DA:997,1
DA:998,1
DA:999,1
DA:1006,1
DA:1007,1
DA:1008,1
DA:1009,1
DA:1010,1
DA:1011,1
DA:1012,1
DA:1013,1
DA:1014,1
DA:1017,1
DA:1018,1
DA:1019,1
DA:1020,1
DA:1021,1
DA:1022,1
DA:1023,1
DA:1024,1
DA:1025,1
DA:1028,1
DA:1029,1
DA:1030,1
DA:1031,1
DA:1033,1
DA:1034,1
DA:1035,1
DA:1036,1
DA:1037,1
DA:1040,1
DA:1041,1
DA:1042,1
DA:1043,1
DA:1045,1
DA:1046,1
DA:1049,1
DA:1050,1
DA:1051,1
DA:1052,1
DA:1053,1
DA:1054,1
DA:1055,1
DA:1058,1
DA:1059,1
DA:1060,1
DA:1061,1
DA:1063,1
DA:1064,1
BRF:0
BRH:0
LF:849
LH:722
end_of_record
SF:/home/chris/dev/loopautoma/src-tauri/src/trigger.rs
FN:11,_RNvMNtCsh9acLuEY8XH_14loopautoma_lib7triggerNtB2_15IntervalTrigger3new
FN:20,_RNvXs_NtCsh9acLuEY8XH_14loopautoma_lib7triggerNtB4_15IntervalTriggerNtNtB6_6domain7Trigger11should_fire
FN:11,_RNvMNtCs54IFX23eV0j_14loopautoma_lib7triggerNtB2_15IntervalTrigger3new
FN:20,_RNvXs_NtCs54IFX23eV0j_14loopautoma_lib7triggerNtB4_15IntervalTriggerNtNtB6_6domain7Trigger11should_fire
FNDA:0,_RNvMNtCsh9acLuEY8XH_14loopautoma_lib7triggerNtB2_15IntervalTrigger3new
FNDA:0,_RNvXs_NtCsh9acLuEY8XH_14loopautoma_lib7triggerNtB4_15IntervalTriggerNtNtB6_6domain7Trigger11should_fire
FNDA:4,_RNvMNtCs54IFX23eV0j_14loopautoma_lib7triggerNtB2_15IntervalTrigger3new
FNDA:10,_RNvXs_NtCs54IFX23eV0j_14loopautoma_lib7triggerNtB4_15IntervalTriggerNtNtB6_6domain7Trigger11should_fire
FNF:2
FNH:2
DA:11,4
DA:12,4
DA:13,4
DA:14,4
DA:15,4
DA:16,4
DA:20,10
DA:21,10
DA:23,4
DA:24,4
DA:26,6
DA:27,6
DA:28,5
DA:29,5
DA:31,1
DA:35,10
BRF:0
BRH:0
LF:16
LH:16
end_of_record